Certificate:
    Data:
        Version: 3 (0x2)
        Serial Number: 4101 (0x1005)
    Signature Algorithm: sha256WithRSAEncryption
        Issuer: O=sj.se, CN=sj.seCA
        Validity
            Not Before: Sep 20 10:17:14 2016 GMT
            Not After : Sep 20 10:17:14 2017 GMT
        Subject: O=sj.se/dnQualifier=bab31ecb-f0f6-4775-9270-7523b9c72c6d, CN=se.sj++++Lund_Camera_Sensehat
        Subject Public Key Info:
            Public Key Algorithm: id-ecPublicKey
                Public-Key: (256 bit)
                pub: 
                    04:a5:ae:61:26:b5:b1:c1:a0:25:86:7a:7a:c5:6a:
                    9a:d5:ba:01:4f:c7:bd:24:86:5b:58:9b:39:88:73:
                    9c:a0:ac:0f:03:ac:46:92:00:ca:ae:39:68:50:bd:
                    97:e5:5b:e9:27:be:fd:70:a8:c5:ca:39:9c:a3:fa:
                    a3:ce:41:a7:86
                ASN1 OID: prime256v1
        X509v3 extensions:
            X509v3 Subject Key Identifier: 
                FF:F0:47:87:C3:40:6F:37:90:9E:ED:B7:E7:4E:74:CB:0D:64:8F:CE
            X509v3 Authority Key Identifier: 
                DirName:/O=sj.se/CN=sj.seCA
                serial:85:CE:CE:7B:48:01:1C:92

            X509v3 Basic Constraints: 
                CA:FALSE
    Signature Algorithm: sha256WithRSAEncryption
         aa:98:e1:47:37:b9:6c:7f:15:33:03:1d:99:c0:8f:bc:bd:c1:
         0e:17:49:e2:18:44:10:3c:92:2b:1d:14:5f:82:41:5e:80:55:
         e1:e3:5a:10:81:f5:ee:88:37:f3:39:d3:8d:5a:dd:48:fd:88:
         36:ba:99:93:83:7c:31:86:e3:5a:80:a9:82:ae:cd:99:04:75:
         b6:e1:af:88:c8:32:40:15:3f:60:0a:ce:c8:9c:30:fc:7e:e2:
         ce:01:03:44:4c:5b:84:dd:74:42:60:24:17:2a:8f:56:a9:e4:
         31:0a:a4:74:9f:0b:6d:9a:b0:6c:d4:00:28:9a:35:a3:6a:95:
         53:8f:8c:79:97:ce:ea:0d:57:68:ce:0a:a1:de:9c:3b:36:05:
         13:a2:4e:af:bf:ee:0a:be:9d:e6:a9:96:f8:eb:23:47:53:0d:
         60:0a:23:90:f7:eb:df:46:23:8a:11:3c:f6:cf:8f:df:33:b7:
         02:d0:2d:4c:70:cc:3c:c6:b1:fb:96:bc:ac:c0:80:52:b7:19:
         4f:f2:ac:64:98:42:1d:5a:22:c8:4b:20:df:ff:f9:1c:ca:29:
         cf:92:4c:f2:1a:7a:a6:d4:01:65:56:8e:88:a9:d9:9b:78:df:
         76:02:41:5d:11:6b:36:f0:9a:3f:3d:e0:60:82:69:e0:58:26:
         1d:cb:26:ee
-----BEGIN CERTIFICATE-----
MIICpDCCAYygAwIBAgICEAUwDQYJKoZIhvcNAQELBQAwIjEOMAwGA1UEChMFc2ou
c2UxEDAOBgNVBAMTB3NqLnNlQ0EwHhcNMTYwOTIwMTAxNzE0WhcNMTcwOTIwMTAx
NzE0WjBnMQ4wDAYDVQQKDAVzai5zZTEtMCsGA1UELhMkYmFiMzFlY2ItZjBmNi00
Nzc1LTkyNzAtNzUyM2I5YzcyYzZkMSYwJAYDVQQDDB1zZS5zaisrKytMdW5kX0Nh
bWVyYV9TZW5zZWhhdDBZMBMGByqGSM49AgEGCCqGSM49AwEHA0IABKWuYSa1scGg
JYZ6esVqmtW6AU/HvSSGW1ibOYhznKCsDwOsRpIAyq45aFC9l+Vb6Se+/XCoxco5
nKP6o85Bp4ajajBoMB0GA1UdDgQWBBT/8EeHw0BvN5Ce7bfnTnTLDWSPzjA8BgNV
HSMENTAzoSakJDAiMQ4wDAYDVQQKEwVzai5zZTEQMA4GA1UEAxMHc2ouc2VDQYIJ
AIXOzntIARySMAkGA1UdEwQCMAAwDQYJKoZIhvcNAQELBQADggEBAKqY4Uc3uWx/
FTMDHZnAj7y9wQ4XSeIYRBA8kisdFF+CQV6AVeHjWhCB9e6IN/M5041a3Uj9iDa6
mZODfDGG41qAqYKuzZkEdbbhr4jIMkAVP2AKzsicMPx+4s4BA0RMW4TddEJgJBcq
j1ap5DEKpHSfC22asGzUACiaNaNqlVOPjHmXzuoNV2jOCqHenDs2BROiTq+/7gq+
neaplvjrI0dTDWAKI5D3699GI4oRPPbPj98ztwLQLUxwzDzGsfuWvKzAgFK3GU/y
rGSYQh1aIshLIN//+RzKKc+STPIaeqbUAWVWjoip2Zt433YCQV0Razbwmj894GCC
aeBYJh3LJu4=
-----END CERTIFICATE-----
