Certificate:
    Data:
        Version: 3 (0x2)
        Serial Number: 4105 (0x1009)
    Signature Algorithm: sha256WithRSAEncryption
        Issuer: O=SJ, CN=SJCA
        Validity
            Not Before: Sep 28 08:37:45 2016 GMT
            Not After : Sep 28 08:37:45 2017 GMT
        Subject: O=SJ/dnQualifier=6b88b39f-014c-42bc-8d2d-15b274c40bdc, CN=SJ++++Sthlm_Camera_Sensehat
        Subject Public Key Info:
            Public Key Algorithm: id-ecPublicKey
                Public-Key: (256 bit)
                pub: 
                    04:24:bb:55:35:e3:9e:03:c6:1f:4c:f0:05:ca:a8:
                    75:8c:94:62:d7:e7:47:bd:49:28:ee:4f:87:01:4f:
                    3e:00:b5:ed:49:00:17:8b:1f:77:ac:eb:ef:78:c5:
                    33:05:15:f8:ec:eb:c8:e6:49:99:3f:12:c4:58:92:
                    91:4b:f3:7f:09
                ASN1 OID: prime256v1
        X509v3 extensions:
            X509v3 Subject Key Identifier: 
                8A:E1:D8:07:6C:9D:48:3E:39:13:67:5E:99:D1:36:AF:59:E0:66:E2
            X509v3 Authority Key Identifier: 
                DirName:/O=SJ/CN=SJCA
                serial:DC:DC:34:84:FD:8B:86:0F

            X509v3 Basic Constraints: 
                CA:FALSE
    Signature Algorithm: sha256WithRSAEncryption
         4f:6d:55:f4:c6:8d:38:55:29:89:44:6c:8a:15:4e:90:e8:65:
         c5:bc:cb:83:d1:56:7a:d0:98:05:7f:fe:3c:f5:4d:41:90:fc:
         ed:ed:50:37:8b:b9:b2:cd:ee:12:fc:96:9e:ef:a8:ac:43:df:
         c0:c3:60:70:b9:32:b9:9d:da:3c:0b:ac:8c:3f:b4:c2:12:90:
         af:2c:20:77:b1:05:f8:67:1a:c3:59:60:e3:2f:84:3b:22:ea:
         08:bd:a3:ec:d9:ef:dd:4b:3d:b7:06:14:d9:74:cb:d7:0e:4e:
         db:76:c0:25:85:4d:73:e6:7b:42:37:52:c7:a5:11:84:de:40:
         31:bc:11:2a:8d:67:68:1e:dd:27:4a:45:2a:5d:1c:38:ca:bc:
         34:e8:da:ba:63:61:8b:31:e3:24:4f:d7:97:65:33:d2:d6:ee:
         3c:94:eb:2b:ec:db:65:47:4f:a6:bd:12:41:1e:a6:a0:d2:41:
         ca:db:ab:a5:cb:a6:21:08:8d:8a:d2:fc:38:3b:2b:12:df:53:
         ed:87:0e:d2:2a:ab:d1:a6:2c:c8:46:d1:38:c0:e5:da:aa:fd:
         98:62:c8:8e:17:14:a7:72:0b:4d:53:ff:d7:9c:7c:f0:84:80:
         21:11:df:93:16:aa:f6:1e:8f:1a:1a:d6:fd:9c:06:d4:2e:4d:
         74:40:99:bb
-----BEGIN CERTIFICATE-----
MIICkzCCAXugAwIBAgICEAkwDQYJKoZIhvcNAQELBQAwHDELMAkGA1UEChMCU0ox
DTALBgNVBAMTBFNKQ0EwHhcNMTYwOTI4MDgzNzQ1WhcNMTcwOTI4MDgzNzQ1WjBi
MQswCQYDVQQKDAJTSjEtMCsGA1UELhMkNmI4OGIzOWYtMDE0Yy00MmJjLThkMmQt
MTViMjc0YzQwYmRjMSQwIgYDVQQDDBtTSisrKytTdGhsbV9DYW1lcmFfU2Vuc2Vo
YXQwWTATBgcqhkjOPQIBBggqhkjOPQMBBwNCAAQku1U1454Dxh9M8AXKqHWMlGLX
50e9SSjuT4cBTz4Ate1JABeLH3es6+94xTMFFfjs68jmSZk/EsRYkpFL838Jo2Qw
YjAdBgNVHQ4EFgQUiuHYB2ydSD45E2demdE2r1ngZuIwNgYDVR0jBC8wLaEgpB4w
HDELMAkGA1UEChMCU0oxDTALBgNVBAMTBFNKQ0GCCQDc3DSE/YuGDzAJBgNVHRME
AjAAMA0GCSqGSIb3DQEBCwUAA4IBAQBPbVX0xo04VSmJRGyKFU6Q6GXFvMuD0VZ6
0JgFf/489U1BkPzt7VA3i7myze4S/Jae76isQ9/Aw2BwuTK5ndo8C6yMP7TCEpCv
LCB3sQX4ZxrDWWDjL4Q7IuoIvaPs2e/dSz23BhTZdMvXDk7bdsAlhU1z5ntCN1LH
pRGE3kAxvBEqjWdoHt0nSkUqXRw4yrw06Nq6Y2GLMeMkT9eXZTPS1u48lOsr7Ntl
R0+mvRJBHqag0kHK26uly6YhCI2K0vw4OysS31Pthw7SKqvRpizIRtE4wOXaqv2Y
YsiOFxSncgtNU//XnHzwhIAhEd+TFqr2Ho8aGtb9nAbULk10QJm7
-----END CERTIFICATE-----
