Certificate:
    Data:
        Version: 3 (0x2)
        Serial Number: 4109 (0x100d)
    Signature Algorithm: sha256WithRSAEncryption
        Issuer: O=SJ, CN=SJCA
        Validity
            Not Before: Sep 28 08:44:40 2016 GMT
            Not After : Sep 28 08:44:40 2017 GMT
        Subject: O=SJ/dnQualifier=830e31cd-708b-4600-b149-b94ce00e17db, CN=SJ++++Sthlm_InfoBoard
        Subject Public Key Info:
            Public Key Algorithm: id-ecPublicKey
                Public-Key: (256 bit)
                pub: 
                    04:7c:68:58:32:bd:d3:9a:ce:2a:b9:b4:50:51:55:
                    76:c4:89:11:ba:5c:9b:37:8f:5e:83:e9:1f:5c:90:
                    22:ac:df:f9:52:cd:fc:56:c5:4d:df:2e:74:0a:59:
                    a0:ed:83:fc:0e:9c:1d:49:08:3d:32:e4:e9:c5:1c:
                    10:15:66:91:a0
                ASN1 OID: prime256v1
        X509v3 extensions:
            X509v3 Subject Key Identifier: 
                EE:6D:B8:39:AF:F1:AF:5B:6D:BE:66:B7:23:0F:F1:F0:4C:64:63:AB
            X509v3 Authority Key Identifier: 
                DirName:/O=SJ/CN=SJCA
                serial:FA:3E:EA:FA:E5:52:B3:13

            X509v3 Basic Constraints: 
                CA:FALSE
    Signature Algorithm: sha256WithRSAEncryption
         03:fd:97:35:29:a8:7e:ea:c5:1b:9b:15:5a:8e:a1:99:3e:ed:
         2d:56:5d:b4:62:7c:dc:d4:fa:a4:fa:9f:0d:d8:74:23:c8:e2:
         98:2b:7c:89:39:bb:63:9d:45:a6:fa:fc:8f:5e:14:66:ce:0b:
         75:15:d3:e1:a7:92:8f:3e:8c:d2:3d:6b:19:87:e1:ff:3c:08:
         85:3a:4f:60:c3:99:9d:61:3b:a5:c9:fb:78:d0:10:4a:c9:b7:
         f2:67:f9:a0:e9:d5:ab:e4:e9:91:1b:39:55:97:43:17:47:07:
         de:62:08:e2:d0:66:df:eb:a8:8d:ed:ee:3a:21:0f:cb:d5:52:
         fd:a4:f3:b1:8d:ad:8d:18:a8:84:39:44:2b:57:e2:d4:c8:2e:
         11:05:85:40:5f:8e:92:1f:c9:d8:26:cc:a0:34:fe:39:57:3d:
         86:44:d5:1c:58:d0:36:7f:2f:2e:41:de:df:95:9e:7b:0c:31:
         8e:36:d9:5e:91:db:1b:0d:eb:1a:e2:b0:dd:b8:cd:6f:4c:66:
         65:28:29:07:5b:af:0d:45:39:c7:d1:1c:e7:ee:80:0f:f5:93:
         2f:be:33:3b:b3:e1:69:2e:23:52:1d:09:7d:af:24:95:6c:81:
         d2:7f:14:df:64:e3:fa:13:78:83:da:b8:20:ca:c9:a0:e7:c1:
         84:88:40:50
-----BEGIN CERTIFICATE-----
MIICjTCCAXWgAwIBAgICEA0wDQYJKoZIhvcNAQELBQAwHDELMAkGA1UEChMCU0ox
DTALBgNVBAMTBFNKQ0EwHhcNMTYwOTI4MDg0NDQwWhcNMTcwOTI4MDg0NDQwWjBc
MQswCQYDVQQKDAJTSjEtMCsGA1UELhMkODMwZTMxY2QtNzA4Yi00NjAwLWIxNDkt
Yjk0Y2UwMGUxN2RiMR4wHAYDVQQDDBVTSisrKytTdGhsbV9JbmZvQm9hcmQwWTAT
BgcqhkjOPQIBBggqhkjOPQMBBwNCAAR8aFgyvdOaziq5tFBRVXbEiRG6XJs3j16D
6R9ckCKs3/lSzfxWxU3fLnQKWaDtg/wOnB1JCD0y5OnFHBAVZpGgo2QwYjAdBgNV
HQ4EFgQU7m24Oa/xr1ttvma3Iw/x8ExkY6swNgYDVR0jBC8wLaEgpB4wHDELMAkG
A1UEChMCU0oxDTALBgNVBAMTBFNKQ0GCCQD6Pur65VKzEzAJBgNVHRMEAjAAMA0G
CSqGSIb3DQEBCwUAA4IBAQAD/Zc1Kah+6sUbmxVajqGZPu0tVl20Ynzc1Pqk+p8N
2HQjyOKYK3yJObtjnUWm+vyPXhRmzgt1FdPhp5KPPozSPWsZh+H/PAiFOk9gw5md
YTulyft40BBKybfyZ/mg6dWr5OmRGzlVl0MXRwfeYgji0Gbf66iN7e46IQ/L1VL9
pPOxja2NGKiEOUQrV+LUyC4RBYVAX46SH8nYJsygNP45Vz2GRNUcWNA2fy8uQd7f
lZ57DDGONtlekdsbDesa4rDduM1vTGZlKCkHW68NRTnH0Rzn7oAP9ZMvvjM7s+Fp
LiNSHQl9rySVbIHSfxTfZOP6E3iD2rggysmg58GEiEBQ
-----END CERTIFICATE-----
