Certificate:
    Data:
        Version: 3 (0x2)
        Serial Number: 4099 (0x1003)
    Signature Algorithm: sha256WithRSAEncryption
        Issuer: O=sj.se, CN=sj.seCA
        Validity
            Not Before: Sep 20 10:16:59 2016 GMT
            Not After : Sep 20 10:16:59 2017 GMT
        Subject: O=sj.se/dnQualifier=cc177dba-4943-43b4-9ad8-830374007f2c, CN=se.sj++++ELX
        Subject Public Key Info:
            Public Key Algorithm: id-ecPublicKey
                Public-Key: (256 bit)
                pub: 
                    04:23:21:7f:8a:bf:36:e6:85:c6:04:70:da:72:79:
                    60:e0:0e:a6:ee:61:cf:b8:53:64:c9:45:cb:9d:25:
                    f4:fc:17:66:76:49:17:1b:51:94:f8:35:4d:7f:68:
                    bd:76:44:d3:39:51:50:6c:c7:58:81:69:cb:07:21:
                    1f:09:ed:01:0f
                ASN1 OID: prime256v1
        X509v3 extensions:
            X509v3 Subject Key Identifier: 
                D6:56:59:F2:CA:78:A1:E7:99:A2:72:BC:CC:39:A4:49:C5:69:E1:B2
            X509v3 Authority Key Identifier: 
                DirName:/O=sj.se/CN=sj.seCA
                serial:85:CE:CE:7B:48:01:1C:92

            X509v3 Basic Constraints: 
                CA:FALSE
    Signature Algorithm: sha256WithRSAEncryption
         6d:2e:4e:b8:e8:bb:2e:0f:a8:66:f5:87:22:18:e5:27:1b:ec:
         ff:30:ce:54:ce:12:09:a8:b8:1d:6e:a2:a6:27:b1:99:63:10:
         22:bb:b5:ec:fd:66:3e:7b:c5:8e:75:08:41:d5:2e:38:e7:66:
         11:d6:2e:59:b0:ee:d6:72:16:a7:14:5a:9f:8d:c5:05:4e:20:
         04:ce:74:8d:b2:f7:f1:a4:2d:e9:6e:3d:03:d2:07:e6:c7:7c:
         98:e2:0d:97:d8:b9:77:2b:ec:a2:45:cd:ae:3c:5e:d5:ae:81:
         36:14:96:cb:d3:be:51:5f:00:81:fe:aa:cf:a5:69:ad:76:9d:
         00:d7:a0:85:ec:a4:b2:17:5e:86:46:ac:a9:bc:ae:be:6c:9d:
         1e:cc:e7:70:c1:f0:65:48:1a:d3:c6:3a:38:10:9d:5b:93:fc:
         04:52:bc:4d:62:f5:eb:fe:92:d5:b6:68:1b:2c:a7:37:3b:42:
         ae:aa:50:8c:f5:78:ec:bb:37:dc:fb:62:fb:f5:e8:b9:79:6c:
         ee:68:6b:9d:33:6e:ea:e9:ba:0b:e1:43:74:55:6f:18:93:01:
         37:9a:38:69:43:d4:c9:b2:45:6c:f6:fe:dc:97:13:29:ef:a4:
         c6:c1:16:5c:12:12:dd:10:ab:1a:54:82:b6:df:f1:f4:15:06:
         46:ad:74:f6
-----BEGIN CERTIFICATE-----
MIICkzCCAXugAwIBAgICEAMwDQYJKoZIhvcNAQELBQAwIjEOMAwGA1UEChMFc2ou
c2UxEDAOBgNVBAMTB3NqLnNlQ0EwHhcNMTYwOTIwMTAxNjU5WhcNMTcwOTIwMTAx
NjU5WjBWMQ4wDAYDVQQKDAVzai5zZTEtMCsGA1UELhMkY2MxNzdkYmEtNDk0My00
M2I0LTlhZDgtODMwMzc0MDA3ZjJjMRUwEwYDVQQDDAxzZS5zaisrKytFTFgwWTAT
BgcqhkjOPQIBBggqhkjOPQMBBwNCAAQjIX+KvzbmhcYEcNpyeWDgDqbuYc+4U2TJ
RcudJfT8F2Z2SRcbUZT4NU1/aL12RNM5UVBsx1iBacsHIR8J7QEPo2owaDAdBgNV
HQ4EFgQU1lZZ8sp4oeeZonK8zDmkScVp4bIwPAYDVR0jBDUwM6EmpCQwIjEOMAwG
A1UEChMFc2ouc2UxEDAOBgNVBAMTB3NqLnNlQ0GCCQCFzs57SAEckjAJBgNVHRME
AjAAMA0GCSqGSIb3DQEBCwUAA4IBAQBtLk646LsuD6hm9YciGOUnG+z/MM5UzhIJ
qLgdbqKmJ7GZYxAiu7Xs/WY+e8WOdQhB1S4452YR1i5ZsO7WchanFFqfjcUFTiAE
znSNsvfxpC3pbj0D0gfmx3yY4g2X2Ll3K+yiRc2uPF7VroE2FJbL075RXwCB/qrP
pWmtdp0A16CF7KSyF16GRqypvK6+bJ0ezOdwwfBlSBrTxjo4EJ1bk/wEUrxNYvXr
/pLVtmgbLKc3O0KuqlCM9Xjsuzfc+2L79ei5eWzuaGudM27q6boL4UN0VW8YkwE3
mjhpQ9TJskVs9v7clxMp76TGwRZcEhLdEKsaVIK23/H0FQZGrXT2
-----END CERTIFICATE-----
