Certificate:
    Data:
        Version: 3 (0x2)
        Serial Number: 4111 (0x100f)
    Signature Algorithm: sha256WithRSAEncryption
        Issuer: O=sj.se, CN=sj.seCA
        Validity
            Not Before: Sep 20 10:18:16 2016 GMT
            Not After : Sep 20 10:18:16 2017 GMT
        Subject: O=sj.se/dnQualifier=3a08bd24-f46e-4d1f-81a0-249d50804d5e, CN=se.sj++++Sthlm_RFID
        Subject Public Key Info:
            Public Key Algorithm: id-ecPublicKey
                Public-Key: (256 bit)
                pub: 
                    04:5e:f0:76:76:0f:d6:33:28:37:f5:62:34:16:9a:
                    c7:77:b5:8d:63:a0:72:e4:76:d1:7f:bd:f5:bc:9b:
                    c2:ce:65:cd:de:0f:db:d2:0c:4a:a4:1a:33:01:5a:
                    ae:90:cf:f1:50:f5:ef:1f:98:da:bc:c7:5e:40:d1:
                    65:d7:b5:f2:7f
                ASN1 OID: prime256v1
        X509v3 extensions:
            X509v3 Subject Key Identifier: 
                80:87:CC:17:04:04:8C:84:F8:CF:35:29:C1:12:FC:BF:CB:49:45:28
            X509v3 Authority Key Identifier: 
                DirName:/O=sj.se/CN=sj.seCA
                serial:85:CE:CE:7B:48:01:1C:92

            X509v3 Basic Constraints: 
                CA:FALSE
    Signature Algorithm: sha256WithRSAEncryption
         67:1e:2f:1d:be:d9:2d:cf:bf:3c:ac:77:c6:a7:af:9c:52:33:
         1c:5a:5b:e9:71:2a:82:94:8c:53:3a:80:c4:db:2a:4b:01:c0:
         bf:6d:e6:94:57:e4:1f:aa:b8:1b:c9:b2:00:08:32:70:63:74:
         0b:4c:f4:ac:10:b0:7b:c0:f4:b5:c9:2e:d8:63:2f:14:7f:ae:
         7a:b9:61:dc:09:bb:67:4f:f9:da:f4:03:f2:bc:b1:f0:1b:f8:
         f0:02:6c:90:43:67:07:12:cf:ff:98:ec:86:ab:d7:46:71:25:
         8b:f6:92:9e:b8:59:b1:5d:bb:b6:68:21:ed:f8:a3:c1:69:81:
         1c:ff:2f:d7:af:5f:b5:cf:c4:26:53:8e:7d:0f:8d:6e:b1:26:
         14:6a:2b:bc:2d:c8:1e:fa:b0:74:cf:18:24:f4:4f:c1:b6:da:
         38:cc:e4:28:80:8e:f2:c8:f8:7c:91:5e:f1:46:42:e5:4a:34:
         61:e3:36:39:55:b7:b3:10:5d:a2:1b:e4:47:c4:e4:fc:a3:76:
         a6:c5:8d:8c:3b:dc:fd:9b:3f:82:3a:18:42:99:f7:cc:7b:d3:
         c5:28:9a:b1:d8:ca:04:70:13:9b:d4:88:4d:ac:70:b6:17:2f:
         a4:e4:09:f4:7f:0c:de:7e:f4:67:df:28:be:a2:cb:f3:17:52:
         61:db:38:51
-----BEGIN CERTIFICATE-----
MIICmjCCAYKgAwIBAgICEA8wDQYJKoZIhvcNAQELBQAwIjEOMAwGA1UEChMFc2ou
c2UxEDAOBgNVBAMTB3NqLnNlQ0EwHhcNMTYwOTIwMTAxODE2WhcNMTcwOTIwMTAx
ODE2WjBdMQ4wDAYDVQQKDAVzai5zZTEtMCsGA1UELhMkM2EwOGJkMjQtZjQ2ZS00
ZDFmLTgxYTAtMjQ5ZDUwODA0ZDVlMRwwGgYDVQQDDBNzZS5zaisrKytTdGhsbV9S
RklEMFkwEwYHKoZIzj0CAQYIKoZIzj0DAQcDQgAEXvB2dg/WMyg39WI0FprHd7WN
Y6By5HbRf731vJvCzmXN3g/b0gxKpBozAVqukM/xUPXvH5javMdeQNFl17Xyf6Nq
MGgwHQYDVR0OBBYEFICHzBcEBIyE+M81KcES/L/LSUUoMDwGA1UdIwQ1MDOhJqQk
MCIxDjAMBgNVBAoTBXNqLnNlMRAwDgYDVQQDEwdzai5zZUNBggkAhc7Oe0gBHJIw
CQYDVR0TBAIwADANBgkqhkiG9w0BAQsFAAOCAQEAZx4vHb7ZLc+/PKx3xqevnFIz
HFpb6XEqgpSMUzqAxNsqSwHAv23mlFfkH6q4G8myAAgycGN0C0z0rBCwe8D0tcku
2GMvFH+uerlh3Am7Z0/52vQD8ryx8Bv48AJskENnBxLP/5jshqvXRnEli/aSnrhZ
sV27tmgh7fijwWmBHP8v169ftc/EJlOOfQ+NbrEmFGorvC3IHvqwdM8YJPRPwbba
OMzkKICO8sj4fJFe8UZC5Uo0YeM2OVW3sxBdohvkR8Tk/KN2psWNjDvc/Zs/gjoY
Qpn3zHvTxSiasdjKBHATm9SITaxwthcvpOQJ9H8M3n70Z98ovqLL8xdSYds4UQ==
-----END CERTIFICATE-----
