Certificate:
    Data:
        Version: 3 (0x2)
        Serial Number: 4101 (0x1005)
    Signature Algorithm: sha256WithRSAEncryption
        Issuer: O=SJ, CN=SJCA
        Validity
            Not Before: Sep 28 08:34:17 2016 GMT
            Not After : Sep 28 08:34:17 2017 GMT
        Subject: O=SJ/dnQualifier=272797f9-e05f-4c62-83ce-a9d05e455a06, CN=SJ++++Lund_RFID
        Subject Public Key Info:
            Public Key Algorithm: id-ecPublicKey
                Public-Key: (256 bit)
                pub: 
                    04:b1:1e:a8:d7:c8:57:07:3d:ee:b1:e2:14:a3:48:
                    31:01:82:4f:83:c4:7e:82:a5:03:27:15:f7:7b:9b:
                    4e:ec:6a:52:b7:b4:81:81:de:b8:09:26:07:7a:9c:
                    f3:bf:c5:a7:24:27:b0:fd:a9:37:7b:01:78:8d:fb:
                    31:07:c4:16:9a
                ASN1 OID: prime256v1
        X509v3 extensions:
            X509v3 Subject Key Identifier: 
                61:73:7B:6F:98:69:AF:B2:C1:25:35:3F:A2:80:42:5D:76:DF:CB:C8
            X509v3 Authority Key Identifier: 
                DirName:/O=SJ/CN=SJCA
                serial:C1:AE:1A:28:A7:67:0B:07

            X509v3 Basic Constraints: 
                CA:FALSE
    Signature Algorithm: sha256WithRSAEncryption
         4d:ee:43:77:4e:35:00:12:11:13:8d:65:50:e0:af:da:d5:ea:
         70:81:e9:45:55:d5:b9:a6:cd:ef:81:26:ea:86:64:6f:e2:34:
         e6:a6:1c:f0:72:1e:34:d3:6f:a7:82:17:9a:d0:9a:97:6d:2a:
         cc:c4:d4:1b:e8:53:60:7c:88:c0:86:c6:68:86:93:50:54:8e:
         f1:98:d5:f8:7c:d9:bf:e1:de:e3:2a:33:db:8c:41:58:f1:3c:
         b9:0a:ab:ce:8f:1f:67:21:a4:38:91:60:4e:2b:fc:b0:4f:b1:
         2b:89:59:40:57:48:f3:33:3f:92:6f:8e:f1:9d:e5:da:ae:73:
         13:72:f0:da:b9:80:da:69:af:d9:a8:96:6c:5a:81:3a:89:51:
         73:06:a4:e1:0a:f4:51:7e:86:ae:95:a4:66:a6:0a:3f:bb:4c:
         c0:a1:4c:16:96:db:de:66:b4:01:2f:f1:85:66:47:f9:1e:af:
         8b:eb:7a:09:ea:12:c1:6e:55:1b:af:39:f7:6f:da:4b:6f:66:
         77:e9:29:ed:d0:29:c3:9e:af:00:e9:5f:3c:51:a4:0c:ce:ee:
         22:2e:40:c3:01:c0:37:9f:31:d1:33:5a:af:59:99:27:e5:b6:
         d3:8a:b9:59:62:15:01:1e:20:99:84:7e:04:34:6a:22:96:a0:
         c6:5a:94:72
-----BEGIN CERTIFICATE-----
MIIChzCCAW+gAwIBAgICEAUwDQYJKoZIhvcNAQELBQAwHDELMAkGA1UEChMCU0ox
DTALBgNVBAMTBFNKQ0EwHhcNMTYwOTI4MDgzNDE3WhcNMTcwOTI4MDgzNDE3WjBW
MQswCQYDVQQKDAJTSjEtMCsGA1UELhMkMjcyNzk3ZjktZTA1Zi00YzYyLTgzY2Ut
YTlkMDVlNDU1YTA2MRgwFgYDVQQDDA9TSisrKytMdW5kX1JGSUQwWTATBgcqhkjO
PQIBBggqhkjOPQMBBwNCAASxHqjXyFcHPe6x4hSjSDEBgk+DxH6CpQMnFfd7m07s
alK3tIGB3rgJJgd6nPO/xackJ7D9qTd7AXiN+zEHxBaao2QwYjAdBgNVHQ4EFgQU
YXN7b5hpr7LBJTU/ooBCXXbfy8gwNgYDVR0jBC8wLaEgpB4wHDELMAkGA1UEChMC
U0oxDTALBgNVBAMTBFNKQ0GCCQDBrhoop2cLBzAJBgNVHRMEAjAAMA0GCSqGSIb3
DQEBCwUAA4IBAQBN7kN3TjUAEhETjWVQ4K/a1epwgelFVdW5ps3vgSbqhmRv4jTm
phzwch4002+nghea0JqXbSrMxNQb6FNgfIjAhsZohpNQVI7xmNX4fNm/4d7jKjPb
jEFY8Ty5CqvOjx9nIaQ4kWBOK/ywT7EriVlAV0jzMz+Sb47xneXarnMTcvDauYDa
aa/ZqJZsWoE6iVFzBqThCvRRfoaulaRmpgo/u0zAoUwWltveZrQBL/GFZkf5Hq+L
63oJ6hLBblUbrzn3b9pLb2Z36Snt0CnDnq8A6V88UaQMzu4iLkDDAcA3nzHRM1qv
WZkn5bbTirlZYhUBHiCZhH4ENGoilqDGWpRy
-----END CERTIFICATE-----
