Certificate:
    Data:
        Version: 3 (0x2)
        Serial Number: 4097 (0x1001)
    Signature Algorithm: sha256WithRSAEncryption
        Issuer: O=SJ, CN=SJCA
        Validity
            Not Before: Sep 28 08:34:17 2016 GMT
            Not After : Sep 28 08:34:17 2017 GMT
        Subject: O=SJ/dnQualifier=a66ba615-bcbc-4163-ab5e-1509c978fee1, CN=SJ++++ELX
        Subject Public Key Info:
            Public Key Algorithm: id-ecPublicKey
                Public-Key: (256 bit)
                pub: 
                    04:2e:5c:91:16:b4:d9:6e:44:83:cd:50:f5:5e:c3:
                    a6:70:f9:a6:08:fe:fb:fe:73:c9:fa:06:eb:66:7c:
                    bf:cd:9f:23:a1:f8:37:3a:32:49:bc:2b:3c:19:d0:
                    30:d1:d3:21:41:67:c6:1f:6f:16:7a:c7:f5:d5:2e:
                    6b:5e:7a:ff:00
                ASN1 OID: prime256v1
        X509v3 extensions:
            X509v3 Subject Key Identifier: 
                B2:81:38:ED:D3:02:66:22:7B:F4:50:3D:C4:B1:3E:00:E4:47:B8:56
            X509v3 Authority Key Identifier: 
                DirName:/O=SJ/CN=SJCA
                serial:C1:AE:1A:28:A7:67:0B:07

            X509v3 Basic Constraints: 
                CA:FALSE
    Signature Algorithm: sha256WithRSAEncryption
         20:53:44:29:d4:07:ac:83:07:32:5a:9f:6e:8c:40:b3:d7:16:
         1d:42:9d:4e:b7:1e:48:01:75:c5:04:07:c0:21:3c:e8:7b:81:
         40:ee:ca:3c:5c:08:73:10:83:0b:d3:73:c6:0d:ef:86:45:9e:
         a5:34:50:9a:cf:21:14:b2:cc:b9:46:d3:ea:65:41:8f:e0:ef:
         a3:3f:17:e3:e4:c7:5a:cc:ad:ce:44:3b:40:4f:e7:5b:9b:3f:
         db:09:e6:b4:2d:b6:78:00:2b:5c:e3:f6:82:e0:c1:4f:c3:c2:
         6f:cd:e4:0c:61:4f:0f:b5:1d:93:17:2e:a8:8f:4a:3f:99:04:
         db:47:06:51:4a:ec:51:f2:12:38:06:57:f9:8f:ae:7d:5a:a2:
         b6:3b:46:fe:6f:d4:f9:72:c6:e6:d4:79:dd:5b:d3:7f:95:75:
         30:3d:29:67:dd:bf:46:8e:2c:c7:3b:fc:e2:ee:f3:51:a1:fa:
         b2:75:8a:05:11:08:a0:b3:5f:81:46:eb:80:3e:c5:fb:ab:f1:
         2d:0e:cc:1f:dd:20:75:25:45:0b:56:74:7e:87:7e:24:05:ec:
         cd:80:18:3a:11:5c:f4:ca:0f:69:f1:57:23:8d:2e:9a:e6:31:
         f6:78:cf:92:10:d6:f8:d3:cc:9c:30:89:99:d9:e5:28:b3:e9:
         16:f4:d5:59
-----BEGIN CERTIFICATE-----
MIICgTCCAWmgAwIBAgICEAEwDQYJKoZIhvcNAQELBQAwHDELMAkGA1UEChMCU0ox
DTALBgNVBAMTBFNKQ0EwHhcNMTYwOTI4MDgzNDE3WhcNMTcwOTI4MDgzNDE3WjBQ
MQswCQYDVQQKDAJTSjEtMCsGA1UELhMkYTY2YmE2MTUtYmNiYy00MTYzLWFiNWUt
MTUwOWM5NzhmZWUxMRIwEAYDVQQDDAlTSisrKytFTFgwWTATBgcqhkjOPQIBBggq
hkjOPQMBBwNCAAQuXJEWtNluRIPNUPVew6Zw+aYI/vv+c8n6ButmfL/NnyOh+Dc6
Mkm8KzwZ0DDR0yFBZ8YfbxZ6x/XVLmteev8Ao2QwYjAdBgNVHQ4EFgQUsoE47dMC
ZiJ79FA9xLE+AORHuFYwNgYDVR0jBC8wLaEgpB4wHDELMAkGA1UEChMCU0oxDTAL
BgNVBAMTBFNKQ0GCCQDBrhoop2cLBzAJBgNVHRMEAjAAMA0GCSqGSIb3DQEBCwUA
A4IBAQAgU0Qp1AesgwcyWp9ujECz1xYdQp1Otx5IAXXFBAfAITzoe4FA7so8XAhz
EIML03PGDe+GRZ6lNFCazyEUssy5RtPqZUGP4O+jPxfj5MdazK3ORDtAT+dbmz/b
Cea0LbZ4ACtc4/aC4MFPw8JvzeQMYU8PtR2TFy6oj0o/mQTbRwZRSuxR8hI4Blf5
j659WqK2O0b+b9T5csbm1HndW9N/lXUwPSln3b9GjizHO/zi7vNRofqydYoFEQig
s1+BRuuAPsX7q/EtDswf3SB1JUULVnR+h34kBezNgBg6EVz0yg9p8VcjjS6a5jH2
eM+SENb408ycMImZ2eUos+kW9NVZ
-----END CERTIFICATE-----
