Certificate:
    Data:
        Version: 3 (0x2)
        Serial Number: 4107 (0x100b)
    Signature Algorithm: sha256WithRSAEncryption
        Issuer: O=SJ, CN=SJCA
        Validity
            Not Before: Sep 28 08:44:40 2016 GMT
            Not After : Sep 28 08:44:40 2017 GMT
        Subject: O=SJ/dnQualifier=ef4fae3d-5d2f-4a7a-b185-2d462e17308e, CN=SJ++++Sthlm_RFID
        Subject Public Key Info:
            Public Key Algorithm: id-ecPublicKey
                Public-Key: (256 bit)
                pub: 
                    04:70:28:00:e8:79:8e:32:f5:50:82:91:c5:d4:8d:
                    a2:20:77:21:87:5a:d1:92:6a:c2:be:f5:8e:a2:60:
                    be:6f:65:8d:0e:35:30:5b:34:fd:0e:65:a8:62:23:
                    e9:9b:45:54:75:6d:6a:33:19:de:f5:8c:ca:c0:37:
                    48:78:72:b4:6c
                ASN1 OID: prime256v1
        X509v3 extensions:
            X509v3 Subject Key Identifier: 
                8D:3D:D9:D0:88:1F:95:98:57:FC:59:C4:55:29:68:2B:0E:48:00:6A
            X509v3 Authority Key Identifier: 
                DirName:/O=SJ/CN=SJCA
                serial:FA:3E:EA:FA:E5:52:B3:13

            X509v3 Basic Constraints: 
                CA:FALSE
    Signature Algorithm: sha256WithRSAEncryption
         27:c9:5a:4f:fb:ad:fb:9c:45:01:34:13:3f:1c:c0:c5:3d:b7:
         49:32:88:9f:5f:60:70:b5:76:39:a4:c9:e1:18:0f:9a:9a:cc:
         a0:ef:5f:5e:d5:f2:46:8d:34:61:fd:29:26:94:bf:04:45:1f:
         cb:eb:39:ad:7d:8e:85:1a:85:d8:d1:e9:97:8e:67:d7:d8:3a:
         3b:82:0a:4e:2c:c5:d6:cf:49:c9:7f:49:2a:ba:13:9f:fe:e5:
         e2:dc:d9:e5:5d:46:52:99:cc:fd:fc:64:68:56:df:1f:27:49:
         75:a5:45:53:15:83:ff:2c:5f:db:94:3b:f2:8b:c7:7d:5a:ec:
         23:0a:0e:89:bc:5a:0f:c1:07:d9:2b:02:6a:61:47:51:81:3d:
         76:a7:99:39:c1:82:7e:e8:bb:47:71:df:e6:e1:e4:df:52:37:
         02:3e:83:2d:61:83:32:20:46:a0:19:1f:51:17:a6:8c:8e:f3:
         bf:f7:45:c7:99:75:e4:74:b5:35:12:e5:ee:54:d2:2a:92:34:
         f3:28:36:e6:6a:19:22:a7:8c:69:b2:a4:e0:5b:2e:75:18:02:
         05:00:9a:83:2e:84:69:00:bd:b8:fa:b3:f7:c3:9d:33:df:7d:
         71:52:72:35:1b:3f:04:f6:77:e7:7a:4b:a3:34:8b:b7:8a:06:
         46:1a:f0:ea
-----BEGIN CERTIFICATE-----
MIICiDCCAXCgAwIBAgICEAswDQYJKoZIhvcNAQELBQAwHDELMAkGA1UEChMCU0ox
DTALBgNVBAMTBFNKQ0EwHhcNMTYwOTI4MDg0NDQwWhcNMTcwOTI4MDg0NDQwWjBX
MQswCQYDVQQKDAJTSjEtMCsGA1UELhMkZWY0ZmFlM2QtNWQyZi00YTdhLWIxODUt
MmQ0NjJlMTczMDhlMRkwFwYDVQQDDBBTSisrKytTdGhsbV9SRklEMFkwEwYHKoZI
zj0CAQYIKoZIzj0DAQcDQgAEcCgA6HmOMvVQgpHF1I2iIHchh1rRkmrCvvWOomC+
b2WNDjUwWzT9DmWoYiPpm0VUdW1qMxne9YzKwDdIeHK0bKNkMGIwHQYDVR0OBBYE
FI092dCIH5WYV/xZxFUpaCsOSABqMDYGA1UdIwQvMC2hIKQeMBwxCzAJBgNVBAoT
AlNKMQ0wCwYDVQQDEwRTSkNBggkA+j7q+uVSsxMwCQYDVR0TBAIwADANBgkqhkiG
9w0BAQsFAAOCAQEAJ8laT/ut+5xFATQTPxzAxT23STKIn19gcLV2OaTJ4RgPmprM
oO9fXtXyRo00Yf0pJpS/BEUfy+s5rX2OhRqF2NHpl45n19g6O4IKTizF1s9JyX9J
KroTn/7l4tzZ5V1GUpnM/fxkaFbfHydJdaVFUxWD/yxf25Q78ovHfVrsIwoOibxa
D8EH2SsCamFHUYE9dqeZOcGCfui7R3Hf5uHk31I3Aj6DLWGDMiBGoBkfURemjI7z
v/dFx5l15HS1NRLl7lTSKpI08yg25moZIqeMabKk4FsudRgCBQCagy6EaQC9uPqz
98OdM999cVJyNRs/BPZ353pLozSLt4oGRhrw6g==
-----END CERTIFICATE-----
