Certificate:
    Data:
        Version: 3 (0x2)
        Serial Number: 4107 (0x100b)
    Signature Algorithm: sha256WithRSAEncryption
        Issuer: O=SJ, CN=SJCA
        Validity
            Not Before: Sep 28 08:34:18 2016 GMT
            Not After : Sep 28 08:34:18 2017 GMT
        Subject: O=SJ/dnQualifier=ed583063-77db-4e5f-9dbf-179988f8e81a, CN=SJ++++Sthlm_RFID
        Subject Public Key Info:
            Public Key Algorithm: id-ecPublicKey
                Public-Key: (256 bit)
                pub: 
                    04:58:ee:d3:02:bd:d7:a4:5c:0d:31:89:02:00:02:
                    03:a9:2e:a0:22:a7:bd:c5:4f:2f:12:b4:1a:42:df:
                    37:de:9f:b0:56:9f:f6:d9:f2:a2:9c:68:d5:b2:21:
                    08:3a:4c:4e:01:d8:d2:85:dd:25:9d:17:40:92:fd:
                    7f:c3:3d:35:59
                ASN1 OID: prime256v1
        X509v3 extensions:
            X509v3 Subject Key Identifier: 
                0B:C7:77:51:71:5B:D9:EC:24:4D:CE:7C:04:88:E8:67:7A:D8:F0:96
            X509v3 Authority Key Identifier: 
                DirName:/O=SJ/CN=SJCA
                serial:C1:AE:1A:28:A7:67:0B:07

            X509v3 Basic Constraints: 
                CA:FALSE
    Signature Algorithm: sha256WithRSAEncryption
         8b:16:f7:c3:4c:0f:44:0e:6d:9f:4c:a5:20:eb:f5:2d:53:78:
         20:ef:ca:2f:cf:02:b7:a2:16:64:2c:ca:cc:b6:c4:c5:8c:df:
         23:6e:4f:38:fe:61:a8:72:d5:1b:75:19:65:bd:96:a9:b7:62:
         66:c1:75:fd:f3:d0:f1:d1:31:97:ad:f0:9d:c5:e7:aa:b2:0a:
         37:49:18:b8:e1:2e:b3:e8:a0:92:62:2b:b2:17:48:9b:ef:c7:
         cb:44:c9:0e:99:7b:8f:5f:b7:32:a7:2c:90:f6:2f:35:fd:9e:
         8d:62:42:f2:69:64:0f:aa:44:84:2c:ea:02:45:13:48:b1:5a:
         95:fa:43:e2:cf:9e:ec:2a:3e:71:9a:75:73:b1:dd:6c:0d:c7:
         bb:e1:24:e6:95:c9:b5:5a:2c:dc:e2:d4:aa:e0:58:a9:74:fd:
         fc:c5:0f:f0:f7:89:e7:a9:40:07:d8:57:8b:9c:b4:91:29:7c:
         b1:52:97:c5:65:cf:43:3f:18:0e:3b:ce:8f:6f:f8:1b:0b:2e:
         a6:d0:7e:22:d7:6d:52:bb:16:af:23:0c:00:4b:93:2e:be:62:
         7a:db:d0:ba:c7:f1:b0:d9:fb:71:a4:a9:d0:0f:c4:45:e1:cb:
         da:7e:35:64:5d:1c:c8:14:37:8b:0d:3b:9d:57:0f:4e:84:58:
         78:cd:81:04
-----BEGIN CERTIFICATE-----
MIICiDCCAXCgAwIBAgICEAswDQYJKoZIhvcNAQELBQAwHDELMAkGA1UEChMCU0ox
DTALBgNVBAMTBFNKQ0EwHhcNMTYwOTI4MDgzNDE4WhcNMTcwOTI4MDgzNDE4WjBX
MQswCQYDVQQKDAJTSjEtMCsGA1UELhMkZWQ1ODMwNjMtNzdkYi00ZTVmLTlkYmYt
MTc5OTg4ZjhlODFhMRkwFwYDVQQDDBBTSisrKytTdGhsbV9SRklEMFkwEwYHKoZI
zj0CAQYIKoZIzj0DAQcDQgAEWO7TAr3XpFwNMYkCAAIDqS6gIqe9xU8vErQaQt83
3p+wVp/22fKinGjVsiEIOkxOAdjShd0lnRdAkv1/wz01WaNkMGIwHQYDVR0OBBYE
FAvHd1FxW9nsJE3OfASI6Gd62PCWMDYGA1UdIwQvMC2hIKQeMBwxCzAJBgNVBAoT
AlNKMQ0wCwYDVQQDEwRTSkNBggkAwa4aKKdnCwcwCQYDVR0TBAIwADANBgkqhkiG
9w0BAQsFAAOCAQEAixb3w0wPRA5tn0ylIOv1LVN4IO/KL88Ct6IWZCzKzLbExYzf
I25POP5hqHLVG3UZZb2WqbdiZsF1/fPQ8dExl63wncXnqrIKN0kYuOEus+igkmIr
shdIm+/Hy0TJDpl7j1+3MqcskPYvNf2ejWJC8mlkD6pEhCzqAkUTSLFalfpD4s+e
7Co+cZp1c7HdbA3Hu+Ek5pXJtVos3OLUquBYqXT9/MUP8PeJ56lAB9hXi5y0kSl8
sVKXxWXPQz8YDjvOj2/4GwsuptB+ItdtUrsWryMMAEuTLr5ietvQusfxsNn7caSp
0A/EReHL2n41ZF0cyBQ3iw07nVcPToRYeM2BBA==
-----END CERTIFICATE-----
