Certificate:
    Data:
        Version: 3 (0x2)
        Serial Number: 4103 (0x1007)
    Signature Algorithm: sha256WithRSAEncryption
        Issuer: O=SJ, CN=SJCA
        Validity
            Not Before: Sep 28 08:34:17 2016 GMT
            Not After : Sep 28 08:34:17 2017 GMT
        Subject: O=SJ/dnQualifier=50b1d91d-4194-47bb-87b4-516f7e87dd3c, CN=SJ++++Lund_InfoBoard
        Subject Public Key Info:
            Public Key Algorithm: id-ecPublicKey
                Public-Key: (256 bit)
                pub: 
                    04:62:c5:65:36:6c:05:cd:fe:90:13:84:ca:7e:63:
                    9b:49:2b:f8:80:73:c4:85:47:bd:12:db:4c:01:4a:
                    2f:27:bc:7c:3b:e0:08:3c:82:00:1c:74:af:58:f6:
                    24:89:aa:7c:36:fc:28:da:86:33:76:91:ef:90:71:
                    92:ec:31:f8:17
                ASN1 OID: prime256v1
        X509v3 extensions:
            X509v3 Subject Key Identifier: 
                5E:7B:E6:E6:1A:4E:EB:6B:2A:5D:ED:A6:EF:B3:03:44:B5:71:4A:1B
            X509v3 Authority Key Identifier: 
                DirName:/O=SJ/CN=SJCA
                serial:C1:AE:1A:28:A7:67:0B:07

            X509v3 Basic Constraints: 
                CA:FALSE
    Signature Algorithm: sha256WithRSAEncryption
         75:a0:aa:b1:6a:95:04:33:0f:b0:85:69:c2:81:a8:f2:fa:71:
         e5:ab:a3:2e:a0:19:a9:59:5a:c1:4a:d9:e2:e5:6a:7c:95:79:
         0f:1c:6a:c6:eb:05:ec:0d:23:07:81:b2:e8:93:11:47:50:9d:
         2b:e1:d7:88:5d:9e:c5:8e:c9:c8:52:76:9d:aa:92:c6:96:e7:
         89:1b:72:3f:22:a2:7e:e9:05:ef:eb:e4:2b:c7:13:46:da:3b:
         92:3d:6a:25:6b:1e:ff:04:b4:09:1f:cb:99:9f:4a:ed:a9:5e:
         bd:61:e3:bf:72:e7:8f:15:58:f8:d0:d1:16:d9:b2:f2:bd:49:
         77:06:6f:fa:26:31:f2:73:7b:61:7c:21:8e:f4:2d:c6:67:ec:
         f3:a4:cd:47:af:97:20:04:04:32:d5:23:54:2d:38:49:e4:ac:
         25:ff:82:eb:45:4f:07:1b:fd:74:5b:eb:41:35:fa:98:1c:d1:
         1e:fb:ac:7b:c4:50:d4:c2:a4:32:6a:c6:2d:87:c9:6d:cf:52:
         84:71:c9:d4:7f:e2:7f:e8:56:8f:8a:ff:5d:6f:92:b4:c1:7b:
         11:75:1d:ca:05:8e:38:3a:63:f7:5e:10:fe:97:7a:83:d5:bd:
         6b:f9:9a:cc:b7:2a:3f:69:3f:97:29:0e:f6:87:7d:f7:0f:ce:
         35:03:a7:7f
-----BEGIN CERTIFICATE-----
MIICjDCCAXSgAwIBAgICEAcwDQYJKoZIhvcNAQELBQAwHDELMAkGA1UEChMCU0ox
DTALBgNVBAMTBFNKQ0EwHhcNMTYwOTI4MDgzNDE3WhcNMTcwOTI4MDgzNDE3WjBb
MQswCQYDVQQKDAJTSjEtMCsGA1UELhMkNTBiMWQ5MWQtNDE5NC00N2JiLTg3YjQt
NTE2ZjdlODdkZDNjMR0wGwYDVQQDDBRTSisrKytMdW5kX0luZm9Cb2FyZDBZMBMG
ByqGSM49AgEGCCqGSM49AwEHA0IABGLFZTZsBc3+kBOEyn5jm0kr+IBzxIVHvRLb
TAFKLye8fDvgCDyCABx0r1j2JImqfDb8KNqGM3aR75Bxkuwx+BejZDBiMB0GA1Ud
DgQWBBRee+bmGk7raypd7abvswNEtXFKGzA2BgNVHSMELzAtoSCkHjAcMQswCQYD
VQQKEwJTSjENMAsGA1UEAxMEU0pDQYIJAMGuGiinZwsHMAkGA1UdEwQCMAAwDQYJ
KoZIhvcNAQELBQADggEBAHWgqrFqlQQzD7CFacKBqPL6ceWroy6gGalZWsFK2eLl
anyVeQ8casbrBewNIweBsuiTEUdQnSvh14hdnsWOychSdp2qksaW54kbcj8ion7p
Be/r5CvHE0baO5I9aiVrHv8EtAkfy5mfSu2pXr1h479y548VWPjQ0RbZsvK9SXcG
b/omMfJze2F8IY70LcZn7POkzUevlyAEBDLVI1QtOEnkrCX/gutFTwcb/XRb60E1
+pgc0R77rHvEUNTCpDJqxi2HyW3PUoRxydR/4n/oVo+K/11vkrTBexF1HcoFjjg6
Y/deEP6XeoPVvWv5msy3Kj9pP5cpDvaHffcPzjUDp38=
-----END CERTIFICATE-----
