Certificate:
    Data:
        Version: 3 (0x2)
        Serial Number: 4099 (0x1003)
    Signature Algorithm: sha256WithRSAEncryption
        Issuer: O=SJ, CN=SJCA
        Validity
            Not Before: Sep 28 08:34:17 2016 GMT
            Not After : Sep 28 08:34:17 2017 GMT
        Subject: O=SJ/dnQualifier=4ac2d2f3-2922-489e-adb7-cd38bce4ddcf, CN=SJ++++Lund_Camera_Sensehat
        Subject Public Key Info:
            Public Key Algorithm: id-ecPublicKey
                Public-Key: (256 bit)
                pub: 
                    04:59:c0:7b:1e:1f:fc:7b:0a:16:67:ac:ef:42:d9:
                    5c:c5:93:d9:b6:2f:ae:cc:4d:a1:12:c7:cf:b3:bc:
                    87:67:97:33:9c:fb:f5:2d:8d:d0:d3:10:9e:da:de:
                    2c:35:aa:2f:05:8c:40:b5:69:62:1e:2a:5d:25:e7:
                    36:04:23:76:1b
                ASN1 OID: prime256v1
        X509v3 extensions:
            X509v3 Subject Key Identifier: 
                6E:AA:F6:AF:17:21:DB:85:7F:BB:53:A1:C7:60:71:BF:78:F4:39:48
            X509v3 Authority Key Identifier: 
                DirName:/O=SJ/CN=SJCA
                serial:C1:AE:1A:28:A7:67:0B:07

            X509v3 Basic Constraints: 
                CA:FALSE
    Signature Algorithm: sha256WithRSAEncryption
         9e:dd:32:3a:9e:a1:e9:58:1e:c1:e6:e1:f0:85:41:73:5a:a2:
         68:45:6e:f5:cb:21:30:c3:36:91:82:ad:28:a5:79:84:00:ac:
         87:3b:b8:71:8c:5f:99:40:8e:90:55:b5:04:c3:26:1d:1f:d8:
         c4:e8:9e:b3:7f:0f:d2:e8:10:2a:a1:d2:e7:02:a5:6e:ca:f1:
         e5:9c:0c:67:e1:cf:ce:42:0d:13:18:39:6d:71:ee:47:b1:30:
         de:70:5b:69:39:89:47:bd:f1:0d:db:91:bc:6a:c9:93:38:19:
         17:8d:67:26:d5:70:51:95:3a:56:6b:c4:08:24:b4:21:08:2c:
         19:85:eb:74:8a:23:85:de:c5:b7:0d:17:3a:21:94:11:c3:b7:
         d7:bd:89:a9:ad:93:37:c5:8c:d2:53:95:08:0d:99:19:e3:50:
         ee:38:76:9f:e1:74:c3:ab:18:64:ec:9d:a6:52:03:06:f4:5a:
         87:de:fc:4a:34:90:6c:3a:58:6f:2f:50:47:b3:68:26:5f:e3:
         ec:a3:f2:27:39:87:99:84:3a:1c:ac:d7:11:e8:5f:bd:9c:61:
         0c:1e:68:ea:5d:af:a7:2a:e7:9f:76:20:01:fa:5e:eb:66:55:
         23:07:43:e6:09:36:f5:ab:64:88:3e:37:a3:5c:2f:a8:fe:70:
         aa:cd:a4:a7
-----BEGIN CERTIFICATE-----
MIICkjCCAXqgAwIBAgICEAMwDQYJKoZIhvcNAQELBQAwHDELMAkGA1UEChMCU0ox
DTALBgNVBAMTBFNKQ0EwHhcNMTYwOTI4MDgzNDE3WhcNMTcwOTI4MDgzNDE3WjBh
MQswCQYDVQQKDAJTSjEtMCsGA1UELhMkNGFjMmQyZjMtMjkyMi00ODllLWFkYjct
Y2QzOGJjZTRkZGNmMSMwIQYDVQQDDBpTSisrKytMdW5kX0NhbWVyYV9TZW5zZWhh
dDBZMBMGByqGSM49AgEGCCqGSM49AwEHA0IABFnAex4f/HsKFmes70LZXMWT2bYv
rsxNoRLHz7O8h2eXM5z79S2N0NMQntreLDWqLwWMQLVpYh4qXSXnNgQjdhujZDBi
MB0GA1UdDgQWBBRuqvavFyHbhX+7U6HHYHG/ePQ5SDA2BgNVHSMELzAtoSCkHjAc
MQswCQYDVQQKEwJTSjENMAsGA1UEAxMEU0pDQYIJAMGuGiinZwsHMAkGA1UdEwQC
MAAwDQYJKoZIhvcNAQELBQADggEBAJ7dMjqeoelYHsHm4fCFQXNaomhFbvXLITDD
NpGCrSileYQArIc7uHGMX5lAjpBVtQTDJh0f2MTonrN/D9LoECqh0ucCpW7K8eWc
DGfhz85CDRMYOW1x7kexMN5wW2k5iUe98Q3bkbxqyZM4GReNZybVcFGVOlZrxAgk
tCEILBmF63SKI4XexbcNFzohlBHDt9e9iamtkzfFjNJTlQgNmRnjUO44dp/hdMOr
GGTsnaZSAwb0Wofe/Eo0kGw6WG8vUEezaCZf4+yj8ic5h5mEOhys1xHoX72cYQwe
aOpdr6cq5592IAH6XutmVSMHQ+YJNvWrZIg+N6NcL6j+cKrNpKc=
-----END CERTIFICATE-----
