Certificate:
    Data:
        Version: 3 (0x2)
        Serial Number: 4107 (0x100b)
    Signature Algorithm: sha256WithRSAEncryption
        Issuer: O=SJ, CN=SJCA
        Validity
            Not Before: Sep 28 08:37:45 2016 GMT
            Not After : Sep 28 08:37:45 2017 GMT
        Subject: O=SJ/dnQualifier=f2489e24-25c8-4038-8b5e-6e3df247be44, CN=SJ++++Sthlm_RFID
        Subject Public Key Info:
            Public Key Algorithm: id-ecPublicKey
                Public-Key: (256 bit)
                pub: 
                    04:91:ee:50:5e:96:15:d2:f6:ad:42:cb:73:8e:38:
                    a5:75:6a:5a:b4:03:1a:06:7b:63:01:e3:04:66:79:
                    f3:19:7b:7e:99:55:09:d4:9c:0d:fd:a2:10:6b:a9:
                    ef:9e:df:3d:c5:4a:b0:fb:17:68:af:47:9c:ec:c5:
                    52:6a:03:fc:4f
                ASN1 OID: prime256v1
        X509v3 extensions:
            X509v3 Subject Key Identifier: 
                7D:54:DE:A0:48:EF:F9:CC:7F:21:94:F4:23:EC:F6:E4:03:73:C6:DD
            X509v3 Authority Key Identifier: 
                DirName:/O=SJ/CN=SJCA
                serial:DC:DC:34:84:FD:8B:86:0F

            X509v3 Basic Constraints: 
                CA:FALSE
    Signature Algorithm: sha256WithRSAEncryption
         be:d5:fb:4f:f7:7f:35:38:d5:05:72:92:4f:f5:8c:77:d0:7b:
         4a:06:a4:7c:b8:92:5a:60:42:f4:a0:02:5d:28:c4:59:4b:2b:
         6a:0a:98:a2:40:93:2c:7e:b5:a7:97:da:d1:07:6d:bd:a7:5f:
         e4:0d:fb:bb:65:c6:1a:9a:06:d0:df:b5:a3:e0:71:ac:c7:65:
         62:f6:75:5f:dd:ff:61:25:32:64:a7:07:6c:27:1c:2c:98:06:
         85:2c:8b:3f:db:66:00:32:02:b8:91:bf:02:cf:b4:d8:34:c5:
         13:11:cb:9f:42:c8:43:b4:90:7c:b2:52:6d:42:5a:2f:6f:8a:
         d7:93:4e:c6:e0:6a:5c:73:78:91:cd:8d:0a:2f:5f:00:81:41:
         f3:61:d8:27:06:bf:0a:e3:31:42:40:95:8b:a5:75:7d:8c:5e:
         25:ff:d5:07:47:d7:69:c1:3c:d7:18:d1:59:e9:0b:f5:3c:2e:
         c3:02:05:d0:2d:26:d9:8a:03:39:bb:fd:ef:07:8f:4a:f0:d5:
         09:6d:e1:53:b1:61:07:aa:be:dd:d9:05:65:b7:92:da:d3:44:
         b8:1f:38:85:91:11:54:02:c1:b1:38:70:cb:b8:8e:31:94:2c:
         85:46:70:d1:93:66:05:aa:d3:09:b4:87:1a:9c:f7:fa:8c:26:
         4a:b3:60:db
-----BEGIN CERTIFICATE-----
MIICiDCCAXCgAwIBAgICEAswDQYJKoZIhvcNAQELBQAwHDELMAkGA1UEChMCU0ox
DTALBgNVBAMTBFNKQ0EwHhcNMTYwOTI4MDgzNzQ1WhcNMTcwOTI4MDgzNzQ1WjBX
MQswCQYDVQQKDAJTSjEtMCsGA1UELhMkZjI0ODllMjQtMjVjOC00MDM4LThiNWUt
NmUzZGYyNDdiZTQ0MRkwFwYDVQQDDBBTSisrKytTdGhsbV9SRklEMFkwEwYHKoZI
zj0CAQYIKoZIzj0DAQcDQgAEke5QXpYV0vatQstzjjildWpatAMaBntjAeMEZnnz
GXt+mVUJ1JwN/aIQa6nvnt89xUqw+xdor0ec7MVSagP8T6NkMGIwHQYDVR0OBBYE
FH1U3qBI7/nMfyGU9CPs9uQDc8bdMDYGA1UdIwQvMC2hIKQeMBwxCzAJBgNVBAoT
AlNKMQ0wCwYDVQQDEwRTSkNBggkA3Nw0hP2Lhg8wCQYDVR0TBAIwADANBgkqhkiG
9w0BAQsFAAOCAQEAvtX7T/d/NTjVBXKST/WMd9B7SgakfLiSWmBC9KACXSjEWUsr
agqYokCTLH61p5fa0Qdtvadf5A37u2XGGpoG0N+1o+BxrMdlYvZ1X93/YSUyZKcH
bCccLJgGhSyLP9tmADICuJG/As+02DTFExHLn0LIQ7SQfLJSbUJaL2+K15NOxuBq
XHN4kc2NCi9fAIFB82HYJwa/CuMxQkCVi6V1fYxeJf/VB0fXacE81xjRWekL9Twu
wwIF0C0m2YoDObv97wePSvDVCW3hU7FhB6q+3dkFZbeS2tNEuB84hZERVALBsThw
y7iOMZQshUZw0ZNmBarTCbSHGpz3+owmSrNg2w==
-----END CERTIFICATE-----
