Certificate:
    Data:
        Version: 3 (0x2)
        Serial Number: 4101 (0x1005)
    Signature Algorithm: sha256WithRSAEncryption
        Issuer: O=SJ, CN=SJCA
        Validity
            Not Before: Sep 28 08:44:39 2016 GMT
            Not After : Sep 28 08:44:39 2017 GMT
        Subject: O=SJ/dnQualifier=9e8b457b-901d-419a-aff0-6b7458615c9f, CN=SJ++++Lund_RFID
        Subject Public Key Info:
            Public Key Algorithm: id-ecPublicKey
                Public-Key: (256 bit)
                pub: 
                    04:9a:28:bd:c6:c1:64:86:d7:4c:61:12:93:4b:12:
                    58:33:3c:09:da:d0:04:68:ba:4a:46:7e:81:74:85:
                    72:3a:dd:49:28:6e:5f:91:8a:e8:1a:89:fb:e3:26:
                    c9:e7:bc:c2:57:d3:83:29:b2:4b:be:d1:80:ff:82:
                    74:a3:f8:7c:a1
                ASN1 OID: prime256v1
        X509v3 extensions:
            X509v3 Subject Key Identifier: 
                3F:2D:D3:F6:99:93:26:07:76:2E:92:51:7B:23:06:45:D8:17:01:94
            X509v3 Authority Key Identifier: 
                DirName:/O=SJ/CN=SJCA
                serial:FA:3E:EA:FA:E5:52:B3:13

            X509v3 Basic Constraints: 
                CA:FALSE
    Signature Algorithm: sha256WithRSAEncryption
         3a:d0:29:74:4a:0c:81:9e:c5:8a:9e:ae:f8:40:ea:45:30:a0:
         b5:99:e5:1a:d5:28:62:05:73:35:93:b3:7b:cc:e5:5b:39:58:
         b7:10:d0:ea:79:c8:f3:ee:64:5e:da:1c:47:5f:78:59:bb:b1:
         88:e6:52:0f:7f:04:01:a4:19:1b:10:9b:51:05:f8:9a:70:6d:
         23:d8:87:03:17:50:68:b8:bb:d3:08:6a:3c:ec:d9:41:d7:8d:
         85:9a:af:41:69:3c:28:76:9c:7e:7b:8d:08:ee:40:d0:7a:36:
         f6:2b:d0:7c:63:46:7e:de:85:8b:b3:10:26:90:41:19:49:25:
         8a:e1:17:ea:8d:c8:34:d3:7e:b2:69:b3:78:01:e1:e8:5c:1c:
         98:d3:7d:39:75:63:ec:0a:b3:0c:6b:19:ba:af:c2:87:06:a3:
         6d:3c:1a:ec:6c:46:7a:91:e0:b2:5a:9e:1d:96:94:a8:42:94:
         fc:08:04:65:13:49:88:fd:23:ca:d2:08:80:2c:87:f6:ef:7a:
         97:4e:dc:d1:2d:4f:c0:dd:c6:80:c8:96:42:be:c8:be:d4:38:
         9f:73:8e:eb:fd:5b:c5:2e:e5:42:0c:cd:64:36:4b:8d:a8:89:
         62:86:8d:09:b0:80:9a:c4:d6:ba:26:98:a4:d1:85:3c:a6:b1:
         10:72:59:56
-----BEGIN CERTIFICATE-----
MIIChzCCAW+gAwIBAgICEAUwDQYJKoZIhvcNAQELBQAwHDELMAkGA1UEChMCU0ox
DTALBgNVBAMTBFNKQ0EwHhcNMTYwOTI4MDg0NDM5WhcNMTcwOTI4MDg0NDM5WjBW
MQswCQYDVQQKDAJTSjEtMCsGA1UELhMkOWU4YjQ1N2ItOTAxZC00MTlhLWFmZjAt
NmI3NDU4NjE1YzlmMRgwFgYDVQQDDA9TSisrKytMdW5kX1JGSUQwWTATBgcqhkjO
PQIBBggqhkjOPQMBBwNCAASaKL3GwWSG10xhEpNLElgzPAna0ARoukpGfoF0hXI6
3Ukobl+RiugaifvjJsnnvMJX04Mpsku+0YD/gnSj+Hyho2QwYjAdBgNVHQ4EFgQU
Py3T9pmTJgd2LpJReyMGRdgXAZQwNgYDVR0jBC8wLaEgpB4wHDELMAkGA1UEChMC
U0oxDTALBgNVBAMTBFNKQ0GCCQD6Pur65VKzEzAJBgNVHRMEAjAAMA0GCSqGSIb3
DQEBCwUAA4IBAQA60Cl0SgyBnsWKnq74QOpFMKC1meUa1ShiBXM1k7N7zOVbOVi3
ENDqecjz7mRe2hxHX3hZu7GI5lIPfwQBpBkbEJtRBfiacG0j2IcDF1BouLvTCGo8
7NlB142Fmq9BaTwodpx+e40I7kDQejb2K9B8Y0Z+3oWLsxAmkEEZSSWK4Rfqjcg0
036yabN4AeHoXByY0305dWPsCrMMaxm6r8KHBqNtPBrsbEZ6keCyWp4dlpSoQpT8
CARlE0mI/SPK0giALIf273qXTtzRLU/A3caAyJZCvsi+1Difc47r/VvFLuVCDM1k
NkuNqIliho0JsICaxNa6Jpik0YU8prEQcllW
-----END CERTIFICATE-----
