Certificate:
    Data:
        Version: 3 (0x2)
        Serial Number: 4101 (0x1005)
    Signature Algorithm: sha256WithRSAEncryption
        Issuer: O=SJ, CN=SJCA
        Validity
            Not Before: Sep 28 08:37:45 2016 GMT
            Not After : Sep 28 08:37:45 2017 GMT
        Subject: O=SJ/dnQualifier=22af9924-fab8-4cea-89f1-fbcebc53ff97, CN=SJ++++Lund_RFID
        Subject Public Key Info:
            Public Key Algorithm: id-ecPublicKey
                Public-Key: (256 bit)
                pub: 
                    04:f3:c3:a3:fb:53:0f:ab:8c:56:b8:19:b5:0b:65:
                    e0:1c:10:ec:ac:5c:df:ea:34:c4:f0:33:8d:77:35:
                    ad:fc:01:fd:3e:7f:4d:83:a1:d7:56:f4:2d:1a:02:
                    99:40:af:35:7d:40:42:8d:8e:f3:aa:a4:08:ef:15:
                    41:db:1d:ad:0c
                ASN1 OID: prime256v1
        X509v3 extensions:
            X509v3 Subject Key Identifier: 
                25:21:1F:30:7D:E5:E9:0F:F5:D4:84:3C:07:C9:24:A8:2F:B5:AB:AC
            X509v3 Authority Key Identifier: 
                DirName:/O=SJ/CN=SJCA
                serial:DC:DC:34:84:FD:8B:86:0F

            X509v3 Basic Constraints: 
                CA:FALSE
    Signature Algorithm: sha256WithRSAEncryption
         b0:94:d4:a2:9f:05:0b:b4:54:36:f3:ad:ae:5a:a6:f0:c5:f2:
         02:26:54:7e:a8:ba:f5:5c:79:76:c5:4e:ff:b4:eb:58:64:d3:
         35:c8:83:2d:34:ff:92:d0:91:e9:93:1e:7b:ff:dc:a9:65:7c:
         6d:e5:fc:94:85:b2:b8:8f:96:b6:24:c2:df:f0:0f:7a:bb:bd:
         bb:50:c1:8d:e1:a6:cb:3a:0b:32:d6:fe:d8:69:e3:85:98:5e:
         1f:b7:c7:11:d1:e8:7b:43:a0:68:6c:60:be:1d:41:bb:c5:21:
         44:b5:3e:ce:4e:a7:05:83:91:3a:df:32:e2:de:4e:d2:d5:d6:
         79:1a:4e:e3:66:c2:f8:fc:c3:5b:74:a6:b0:75:a9:52:52:0d:
         27:ac:3e:02:1d:71:9c:c6:c7:f3:51:71:11:82:e0:97:73:e6:
         77:44:8d:8a:99:77:84:e8:3c:f7:c9:bb:fd:75:7e:6f:36:05:
         18:d1:2c:32:04:18:f2:69:66:c9:7b:85:dd:07:07:55:25:a5:
         91:66:07:76:71:47:f2:08:c1:ab:ba:54:66:33:21:d6:6f:b6:
         c0:8e:0e:9c:07:aa:2e:c6:f4:1d:af:ff:04:34:1c:b2:00:ae:
         9e:2a:98:9b:74:24:40:dc:59:d1:e0:fb:d0:ac:33:7b:f4:f2:
         21:d1:6b:52
-----BEGIN CERTIFICATE-----
MIIChzCCAW+gAwIBAgICEAUwDQYJKoZIhvcNAQELBQAwHDELMAkGA1UEChMCU0ox
DTALBgNVBAMTBFNKQ0EwHhcNMTYwOTI4MDgzNzQ1WhcNMTcwOTI4MDgzNzQ1WjBW
MQswCQYDVQQKDAJTSjEtMCsGA1UELhMkMjJhZjk5MjQtZmFiOC00Y2VhLTg5ZjEt
ZmJjZWJjNTNmZjk3MRgwFgYDVQQDDA9TSisrKytMdW5kX1JGSUQwWTATBgcqhkjO
PQIBBggqhkjOPQMBBwNCAATzw6P7Uw+rjFa4GbULZeAcEOysXN/qNMTwM413Na38
Af0+f02DoddW9C0aAplArzV9QEKNjvOqpAjvFUHbHa0Mo2QwYjAdBgNVHQ4EFgQU
JSEfMH3l6Q/11IQ8B8kkqC+1q6wwNgYDVR0jBC8wLaEgpB4wHDELMAkGA1UEChMC
U0oxDTALBgNVBAMTBFNKQ0GCCQDc3DSE/YuGDzAJBgNVHRMEAjAAMA0GCSqGSIb3
DQEBCwUAA4IBAQCwlNSinwULtFQ2862uWqbwxfICJlR+qLr1XHl2xU7/tOtYZNM1
yIMtNP+S0JHpkx57/9ypZXxt5fyUhbK4j5a2JMLf8A96u727UMGN4abLOgsy1v7Y
aeOFmF4ft8cR0eh7Q6BobGC+HUG7xSFEtT7OTqcFg5E63zLi3k7S1dZ5Gk7jZsL4
/MNbdKawdalSUg0nrD4CHXGcxsfzUXERguCXc+Z3RI2KmXeE6Dz3ybv9dX5vNgUY
0SwyBBjyaWbJe4XdBwdVJaWRZgd2cUfyCMGrulRmMyHWb7bAjg6cB6ouxvQdr/8E
NByyAK6eKpibdCRA3FnR4PvQrDN79PIh0WtS
-----END CERTIFICATE-----
