Certificate:
    Data:
        Version: 3 (0x2)
        Serial Number: 4105 (0x1009)
    Signature Algorithm: sha256WithRSAEncryption
        Issuer: O=SJ, CN=SJCA
        Validity
            Not Before: Sep 28 08:44:40 2016 GMT
            Not After : Sep 28 08:44:40 2017 GMT
        Subject: O=SJ/dnQualifier=d52b2e74-be86-4159-9101-65ea8d5e7da0, CN=SJ++++Sthlm_Camera_Sensehat
        Subject Public Key Info:
            Public Key Algorithm: id-ecPublicKey
                Public-Key: (256 bit)
                pub: 
                    04:0a:b3:d4:41:e7:1f:db:56:29:28:37:92:e9:a7:
                    17:aa:93:1d:13:7b:30:43:c6:90:57:2d:95:38:21:
                    f3:72:d4:d2:a5:7c:6a:33:78:74:92:f8:01:81:10:
                    6d:c5:14:31:8c:ba:b9:5a:f6:12:28:21:2c:24:3b:
                    ec:b8:cf:09:30
                ASN1 OID: prime256v1
        X509v3 extensions:
            X509v3 Subject Key Identifier: 
                0F:6E:C7:A7:A9:BD:39:F2:91:D8:AE:D4:42:78:83:44:D0:62:97:B4
            X509v3 Authority Key Identifier: 
                DirName:/O=SJ/CN=SJCA
                serial:FA:3E:EA:FA:E5:52:B3:13

            X509v3 Basic Constraints: 
                CA:FALSE
    Signature Algorithm: sha256WithRSAEncryption
         3d:f7:65:34:aa:e1:10:92:b4:31:f4:66:fe:0e:29:0d:ff:ff:
         c4:de:dc:16:04:19:8b:90:7f:3c:25:b1:b3:92:90:32:83:85:
         3a:31:3e:e0:cf:bb:27:c6:0f:fa:0c:65:28:56:77:d8:72:4a:
         32:d1:ae:7d:8f:89:93:eb:0b:ba:64:71:59:09:17:b4:4e:ca:
         e3:d6:83:19:4a:b7:20:38:db:3f:df:ca:0f:8a:db:99:d6:d8:
         dd:88:10:81:97:bd:73:d5:71:a5:df:48:27:b6:16:bd:91:16:
         d6:ab:47:83:04:dc:f6:17:ac:33:5e:76:1d:e8:20:4a:56:c0:
         fe:5a:5c:0d:49:a4:70:54:6b:c5:61:00:23:e8:f3:49:46:d5:
         f2:29:48:a1:36:09:52:4b:68:5c:29:dd:9b:95:c1:43:09:dd:
         5a:d0:08:be:a0:97:8b:55:fb:f1:ba:a8:bd:7b:2d:8f:dd:bd:
         23:f7:60:f5:99:8a:cd:cc:29:44:e5:29:16:d4:4f:b9:50:d6:
         7e:cb:ab:4f:d0:63:70:fa:70:8c:0d:06:44:ef:b0:eb:23:dc:
         aa:29:a6:07:5d:40:12:42:26:79:9e:b6:ea:c7:3d:67:78:c9:
         ea:26:fd:10:b7:18:bd:14:40:51:44:9f:7f:8d:82:85:c6:09:
         29:b5:61:eb
-----BEGIN CERTIFICATE-----
MIICkzCCAXugAwIBAgICEAkwDQYJKoZIhvcNAQELBQAwHDELMAkGA1UEChMCU0ox
DTALBgNVBAMTBFNKQ0EwHhcNMTYwOTI4MDg0NDQwWhcNMTcwOTI4MDg0NDQwWjBi
MQswCQYDVQQKDAJTSjEtMCsGA1UELhMkZDUyYjJlNzQtYmU4Ni00MTU5LTkxMDEt
NjVlYThkNWU3ZGEwMSQwIgYDVQQDDBtTSisrKytTdGhsbV9DYW1lcmFfU2Vuc2Vo
YXQwWTATBgcqhkjOPQIBBggqhkjOPQMBBwNCAAQKs9RB5x/bVikoN5Lppxeqkx0T
ezBDxpBXLZU4IfNy1NKlfGozeHSS+AGBEG3FFDGMurla9hIoISwkO+y4zwkwo2Qw
YjAdBgNVHQ4EFgQUD27Hp6m9OfKR2K7UQniDRNBil7QwNgYDVR0jBC8wLaEgpB4w
HDELMAkGA1UEChMCU0oxDTALBgNVBAMTBFNKQ0GCCQD6Pur65VKzEzAJBgNVHRME
AjAAMA0GCSqGSIb3DQEBCwUAA4IBAQA992U0quEQkrQx9Gb+DikN///E3twWBBmL
kH88JbGzkpAyg4U6MT7gz7snxg/6DGUoVnfYckoy0a59j4mT6wu6ZHFZCRe0Tsrj
1oMZSrcgONs/38oPituZ1tjdiBCBl71z1XGl30gntha9kRbWq0eDBNz2F6wzXnYd
6CBKVsD+WlwNSaRwVGvFYQAj6PNJRtXyKUihNglSS2hcKd2blcFDCd1a0Ai+oJeL
Vfvxuqi9ey2P3b0j92D1mYrNzClE5SkW1E+5UNZ+y6tP0GNw+nCMDQZE77DrI9yq
KaYHXUASQiZ5nrbqxz1neMnqJv0Qtxi9FEBRRJ9/jYKFxgkptWHr
-----END CERTIFICATE-----
