Certificate:
    Data:
        Version: 3 (0x2)
        Serial Number: 4109 (0x100d)
    Signature Algorithm: sha256WithRSAEncryption
        Issuer: O=SJ, CN=SJCA
        Validity
            Not Before: Sep 28 08:37:46 2016 GMT
            Not After : Sep 28 08:37:46 2017 GMT
        Subject: O=SJ/dnQualifier=90b94e38-1a43-4f14-bee4-931f5e247695, CN=SJ++++Sthlm_InfoBoard
        Subject Public Key Info:
            Public Key Algorithm: id-ecPublicKey
                Public-Key: (256 bit)
                pub: 
                    04:7b:e7:56:19:49:02:f5:e1:0c:07:33:08:31:87:
                    07:ff:23:1c:1a:ec:55:a4:f6:88:8b:27:6d:d0:a8:
                    9d:e2:a8:c3:3e:00:6a:ce:11:59:ea:e2:b7:4f:1d:
                    b3:86:1d:47:0b:ed:23:db:b6:3e:24:df:7f:81:5b:
                    1a:da:99:b7:65
                ASN1 OID: prime256v1
        X509v3 extensions:
            X509v3 Subject Key Identifier: 
                5A:90:97:E3:F2:07:6E:02:23:71:9C:BA:95:7B:16:6F:27:52:31:6C
            X509v3 Authority Key Identifier: 
                DirName:/O=SJ/CN=SJCA
                serial:DC:DC:34:84:FD:8B:86:0F

            X509v3 Basic Constraints: 
                CA:FALSE
    Signature Algorithm: sha256WithRSAEncryption
         0b:7d:6a:19:84:03:3e:0e:0e:39:4f:02:7d:ef:8a:a3:2f:73:
         1b:25:b8:58:7d:5d:b5:17:67:2d:9e:da:5a:4d:c8:c6:22:55:
         63:a5:30:c4:c1:4d:eb:8a:65:78:26:10:7f:00:7f:a0:cd:cf:
         ba:a9:94:79:18:54:de:d9:ae:7f:0a:35:43:fc:4c:5c:3d:36:
         f7:15:99:82:94:45:c7:bd:25:88:c4:77:da:96:6d:e7:77:7b:
         1b:6a:cd:be:dc:e9:e0:69:27:b6:a5:ba:dc:fa:b3:63:fb:c3:
         73:42:97:4d:b0:94:5d:5e:be:66:c3:22:b1:02:5d:1a:fc:a9:
         53:d7:f2:5a:7e:08:23:02:fc:35:5c:3f:bd:f9:13:f8:20:62:
         4e:47:ed:80:6a:7b:54:9a:41:ee:cb:ed:d0:c7:23:38:82:70:
         30:c0:29:27:2c:d3:02:30:4a:d7:10:b1:bf:c6:ae:6b:eb:b4:
         e4:9f:4e:dc:12:64:86:48:24:0f:a5:ad:0d:b9:ca:6e:50:40:
         4f:0a:09:00:7e:74:8b:89:4e:60:bf:2b:72:48:48:a7:c8:f6:
         c5:d7:20:4e:b9:0a:ea:dd:a5:db:8d:c1:de:23:8c:5b:6b:f9:
         8b:4f:41:d9:63:bb:c5:37:c6:f5:80:66:ef:0f:c6:f5:a6:e0:
         95:0b:73:8c
-----BEGIN CERTIFICATE-----
MIICjTCCAXWgAwIBAgICEA0wDQYJKoZIhvcNAQELBQAwHDELMAkGA1UEChMCU0ox
DTALBgNVBAMTBFNKQ0EwHhcNMTYwOTI4MDgzNzQ2WhcNMTcwOTI4MDgzNzQ2WjBc
MQswCQYDVQQKDAJTSjEtMCsGA1UELhMkOTBiOTRlMzgtMWE0My00ZjE0LWJlZTQt
OTMxZjVlMjQ3Njk1MR4wHAYDVQQDDBVTSisrKytTdGhsbV9JbmZvQm9hcmQwWTAT
BgcqhkjOPQIBBggqhkjOPQMBBwNCAAR751YZSQL14QwHMwgxhwf/Ixwa7FWk9oiL
J23QqJ3iqMM+AGrOEVnq4rdPHbOGHUcL7SPbtj4k33+BWxrambdlo2QwYjAdBgNV
HQ4EFgQUWpCX4/IHbgIjcZy6lXsWbydSMWwwNgYDVR0jBC8wLaEgpB4wHDELMAkG
A1UEChMCU0oxDTALBgNVBAMTBFNKQ0GCCQDc3DSE/YuGDzAJBgNVHRMEAjAAMA0G
CSqGSIb3DQEBCwUAA4IBAQALfWoZhAM+Dg45TwJ974qjL3MbJbhYfV21F2ctntpa
TcjGIlVjpTDEwU3rimV4JhB/AH+gzc+6qZR5GFTe2a5/CjVD/ExcPTb3FZmClEXH
vSWIxHfalm3nd3sbas2+3OngaSe2pbrc+rNj+8NzQpdNsJRdXr5mwyKxAl0a/KlT
1/JafggjAvw1XD+9+RP4IGJOR+2AantUmkHuy+3QxyM4gnAwwCknLNMCMErXELG/
xq5r67Tkn07cEmSGSCQPpa0NucpuUEBPCgkAfnSLiU5gvytySEinyPbF1yBOuQrq
3aXbjcHeI4xba/mLT0HZY7vFN8b1gGbvD8b1puCVC3OM
-----END CERTIFICATE-----
