Certificate:
    Data:
        Version: 3 (0x2)
        Serial Number: 4097 (0x1001)
    Signature Algorithm: sha256WithRSAEncryption
        Issuer: O=sj.se, CN=sj.seCA
        Validity
            Not Before: Sep 20 10:12:18 2016 GMT
            Not After : Sep 20 10:12:18 2017 GMT
        Subject: O=sj.se/dnQualifier=099e8429-ce78-4f73-9ede-3b80011488b8, CN=sj.se++++Lund_RFID
        Subject Public Key Info:
            Public Key Algorithm: id-ecPublicKey
                Public-Key: (256 bit)
                pub: 
                    04:b5:31:4c:ba:03:56:a1:6b:0c:d6:4a:05:fd:88:
                    d7:a6:5c:fa:57:c9:56:7d:78:b6:c3:19:1c:18:05:
                    45:f3:be:15:22:53:2d:c6:85:c9:8e:86:20:b9:f4:
                    17:7e:8f:ca:1b:fc:99:97:79:13:67:3c:68:07:c1:
                    eb:54:fc:b5:9c
                ASN1 OID: prime256v1
        X509v3 extensions:
            X509v3 Subject Key Identifier: 
                B5:68:97:BE:33:7F:FC:DE:6E:4F:53:EB:0D:A8:FC:79:5F:36:71:48
            X509v3 Authority Key Identifier: 
                DirName:/O=sj.se/CN=sj.seCA
                serial:85:CE:CE:7B:48:01:1C:92

            X509v3 Basic Constraints: 
                CA:FALSE
    Signature Algorithm: sha256WithRSAEncryption
         c5:d3:e9:f8:bc:c1:50:28:20:87:22:fe:80:f4:64:1d:82:97:
         b3:6a:9b:78:b9:33:30:81:32:ae:0b:f5:ee:b3:ea:49:0e:3a:
         f7:83:22:e8:43:c3:6b:a7:0f:b5:5c:ab:8e:e7:3a:eb:ea:b8:
         7d:49:5c:05:4e:4a:a2:f4:41:c9:b5:3b:c0:83:86:b3:07:e5:
         4a:0a:66:bf:a9:31:dc:b4:ca:94:4d:f3:11:ab:dc:bb:53:af:
         a8:ce:25:d1:70:d9:f1:ac:e6:27:0e:8e:e2:be:2a:62:9f:81:
         ef:1b:63:dd:c9:ff:76:5c:b8:c9:fe:b0:d2:02:8c:ce:04:7a:
         ee:53:88:9c:ee:54:71:25:35:d7:f7:55:15:34:9b:5a:d1:27:
         22:0b:d8:e7:7f:78:80:23:c1:a8:fc:5b:c5:1e:e2:ac:29:8e:
         d8:06:69:ac:e9:28:19:74:ef:69:e4:fa:e0:3e:2b:41:6b:58:
         db:ef:43:cd:d3:0b:2c:88:5f:c0:2a:79:c8:84:16:2f:ba:13:
         a2:84:a0:7a:54:46:ce:42:5f:18:74:99:32:db:fb:e2:12:4f:
         2b:0b:f1:25:d4:3d:11:83:28:40:f3:98:36:44:68:1b:c7:4b:
         63:62:16:9b:e3:61:af:4a:1b:69:f3:e6:e2:db:86:ad:b8:96:
         ac:85:54:be
-----BEGIN CERTIFICATE-----
MIICmTCCAYGgAwIBAgICEAEwDQYJKoZIhvcNAQELBQAwIjEOMAwGA1UEChMFc2ou
c2UxEDAOBgNVBAMTB3NqLnNlQ0EwHhcNMTYwOTIwMTAxMjE4WhcNMTcwOTIwMTAx
MjE4WjBcMQ4wDAYDVQQKDAVzai5zZTEtMCsGA1UELhMkMDk5ZTg0MjktY2U3OC00
ZjczLTllZGUtM2I4MDAxMTQ4OGI4MRswGQYDVQQDDBJzai5zZSsrKytMdW5kX1JG
SUQwWTATBgcqhkjOPQIBBggqhkjOPQMBBwNCAAS1MUy6A1ahawzWSgX9iNemXPpX
yVZ9eLbDGRwYBUXzvhUiUy3GhcmOhiC59Bd+j8ob/JmXeRNnPGgHwetU/LWco2ow
aDAdBgNVHQ4EFgQUtWiXvjN//N5uT1PrDaj8eV82cUgwPAYDVR0jBDUwM6EmpCQw
IjEOMAwGA1UEChMFc2ouc2UxEDAOBgNVBAMTB3NqLnNlQ0GCCQCFzs57SAEckjAJ
BgNVHRMEAjAAMA0GCSqGSIb3DQEBCwUAA4IBAQDF0+n4vMFQKCCHIv6A9GQdgpez
apt4uTMwgTKuC/Xus+pJDjr3gyLoQ8Nrpw+1XKuO5zrr6rh9SVwFTkqi9EHJtTvA
g4azB+VKCma/qTHctMqUTfMRq9y7U6+oziXRcNnxrOYnDo7ivipin4HvG2Pdyf92
XLjJ/rDSAozOBHruU4ic7lRxJTXX91UVNJta0SciC9jnf3iAI8Go/FvFHuKsKY7Y
Bmms6SgZdO9p5PrgPitBa1jb70PN0wssiF/AKnnIhBYvuhOihKB6VEbOQl8YdJky
2/viEk8rC/El1D0RgyhA85g2RGgbx0tjYhab42GvShtp8+bi24atuJashVS+
-----END CERTIFICATE-----
