Certificate:
    Data:
        Version: 3 (0x2)
        Serial Number: 4107 (0x100b)
    Signature Algorithm: sha256WithRSAEncryption
        Issuer: O=sj.se, CN=sj.seCA
        Validity
            Not Before: Sep 20 10:18:00 2016 GMT
            Not After : Sep 20 10:18:00 2017 GMT
        Subject: O=sj.se/dnQualifier=c88d05f0-22c1-4fff-96b3-7962d5e9c16e, CN=se.sj++++Sthlm_Camera_Sensehat
        Subject Public Key Info:
            Public Key Algorithm: id-ecPublicKey
                Public-Key: (256 bit)
                pub: 
                    04:0d:48:6c:4f:d6:73:8c:bc:d9:36:17:19:eb:f2:
                    76:a1:81:93:78:ab:05:48:9e:a8:a4:b5:ad:43:2b:
                    b5:d9:e7:d7:21:b5:43:39:4c:ad:fe:2b:d7:1b:45:
                    1e:80:f3:16:87:a7:66:66:8f:a1:2a:6d:82:03:be:
                    46:d5:ff:3b:c4
                ASN1 OID: prime256v1
        X509v3 extensions:
            X509v3 Subject Key Identifier: 
                DD:19:2B:D2:5B:A5:3B:C3:41:69:8A:F1:EF:AE:6D:BC:F2:98:AF:69
            X509v3 Authority Key Identifier: 
                DirName:/O=sj.se/CN=sj.seCA
                serial:85:CE:CE:7B:48:01:1C:92

            X509v3 Basic Constraints: 
                CA:FALSE
    Signature Algorithm: sha256WithRSAEncryption
         21:8b:bb:8d:4c:8d:76:6f:15:eb:77:26:03:2b:42:c2:8a:8e:
         3d:6b:16:b4:ef:f5:62:3b:38:73:28:3c:9f:4f:10:a3:4d:0d:
         ca:7b:2c:0b:5a:ef:69:6d:e6:84:16:3e:76:91:26:d2:47:90:
         8b:a7:56:8d:b0:06:0a:a9:a7:a4:48:bd:b9:af:13:62:32:fc:
         8a:e0:fb:69:88:d6:ec:11:a8:e7:b0:7f:60:ba:33:31:25:34:
         61:70:f6:f1:ac:8e:59:95:d1:64:e0:08:4b:3f:46:47:63:3c:
         e2:e5:10:54:c7:05:f3:a5:ce:c2:27:9a:b4:fb:a0:41:cb:eb:
         50:11:b0:99:61:32:f1:65:ee:d0:e7:26:73:9c:41:01:6d:fb:
         4e:06:74:bc:98:1d:58:25:5c:ad:df:3d:34:5f:2c:7c:58:1f:
         e9:c6:49:de:93:6e:f6:30:cc:67:f1:9d:9b:65:51:cf:93:06:
         4d:d1:06:dc:72:8e:7a:60:c1:b2:38:c7:f9:4f:4d:df:1f:40:
         bd:df:77:1b:3a:85:07:d6:2c:93:e8:14:52:5a:ca:8a:1d:c3:
         25:06:6c:85:25:1a:fe:f0:5a:9b:07:ef:be:38:d2:d9:0d:14:
         3f:28:f1:f7:07:05:0c:e8:da:10:b3:ca:ef:e6:17:04:87:a0:
         74:58:3c:20
-----BEGIN CERTIFICATE-----
MIICpTCCAY2gAwIBAgICEAswDQYJKoZIhvcNAQELBQAwIjEOMAwGA1UEChMFc2ou
c2UxEDAOBgNVBAMTB3NqLnNlQ0EwHhcNMTYwOTIwMTAxODAwWhcNMTcwOTIwMTAx
ODAwWjBoMQ4wDAYDVQQKDAVzai5zZTEtMCsGA1UELhMkYzg4ZDA1ZjAtMjJjMS00
ZmZmLTk2YjMtNzk2MmQ1ZTljMTZlMScwJQYDVQQDDB5zZS5zaisrKytTdGhsbV9D
YW1lcmFfU2Vuc2VoYXQwWTATBgcqhkjOPQIBBggqhkjOPQMBBwNCAAQNSGxP1nOM
vNk2Fxnr8nahgZN4qwVInqikta1DK7XZ59chtUM5TK3+K9cbRR6A8xaHp2Zmj6Eq
bYIDvkbV/zvEo2owaDAdBgNVHQ4EFgQU3Rkr0lulO8NBaYrx765tvPKYr2kwPAYD
VR0jBDUwM6EmpCQwIjEOMAwGA1UEChMFc2ouc2UxEDAOBgNVBAMTB3NqLnNlQ0GC
CQCFzs57SAEckjAJBgNVHRMEAjAAMA0GCSqGSIb3DQEBCwUAA4IBAQAhi7uNTI12
bxXrdyYDK0LCio49axa07/ViOzhzKDyfTxCjTQ3KeywLWu9pbeaEFj52kSbSR5CL
p1aNsAYKqaekSL25rxNiMvyK4PtpiNbsEajnsH9gujMxJTRhcPbxrI5ZldFk4AhL
P0ZHYzzi5RBUxwXzpc7CJ5q0+6BBy+tQEbCZYTLxZe7Q5yZznEEBbftOBnS8mB1Y
JVyt3z00Xyx8WB/pxknek272MMxn8Z2bZVHPkwZN0Qbcco56YMGyOMf5T03fH0C9
33cbOoUH1iyT6BRSWsqKHcMlBmyFJRr+8FqbB+++ONLZDRQ/KPH3BwUM6NoQs8rv
5hcEh6B0WDwg
-----END CERTIFICATE-----
