Certificate:
    Data:
        Version: 3 (0x2)
        Serial Number: 4109 (0x100d)
    Signature Algorithm: sha256WithRSAEncryption
        Issuer: O=sj.se, CN=sj.seCA
        Validity
            Not Before: Sep 20 10:18:08 2016 GMT
            Not After : Sep 20 10:18:08 2017 GMT
        Subject: O=sj.se/dnQualifier=e19cce73-2dfe-4bef-9419-87298f11d3e5, CN=se.sj++++Sthlm_InfoBoard
        Subject Public Key Info:
            Public Key Algorithm: id-ecPublicKey
                Public-Key: (256 bit)
                pub: 
                    04:5a:09:97:bd:cd:98:d2:d2:38:48:8c:01:83:d4:
                    46:f6:aa:ca:58:ae:3e:2f:aa:b8:45:0f:15:e5:82:
                    6f:fa:67:10:71:3f:87:73:34:b3:2c:d6:e1:6b:41:
                    dc:f3:ab:8f:01:7a:35:d8:e5:3a:cf:48:b4:86:84:
                    31:28:26:de:9b
                ASN1 OID: prime256v1
        X509v3 extensions:
            X509v3 Subject Key Identifier: 
                9A:37:D4:79:DA:CF:CB:CC:80:97:0B:44:8E:0A:58:FC:FF:7C:02:66
            X509v3 Authority Key Identifier: 
                DirName:/O=sj.se/CN=sj.seCA
                serial:85:CE:CE:7B:48:01:1C:92

            X509v3 Basic Constraints: 
                CA:FALSE
    Signature Algorithm: sha256WithRSAEncryption
         85:cd:21:63:18:87:8d:c3:ec:58:48:63:c6:72:63:e9:ac:f8:
         8e:0f:ea:09:26:71:32:e8:fa:6d:51:8f:92:25:ad:aa:ab:61:
         b4:d7:6d:ac:9d:32:7a:15:85:2d:96:05:d6:09:98:3c:27:af:
         eb:0f:6a:18:56:5e:4e:95:b5:6c:8c:4f:c9:8d:2a:d2:91:78:
         4a:63:87:e3:9d:9d:9c:a7:6e:2e:02:e3:de:76:4a:bb:51:14:
         62:f6:62:57:1f:a5:31:87:cb:4e:d6:9e:04:e0:92:d7:6a:32:
         30:8c:79:b3:ce:bf:c0:5f:16:60:14:1e:fc:2b:e5:f6:5b:b1:
         7e:cb:9b:b0:a7:89:a4:59:98:3d:65:60:1e:03:26:a9:e5:99:
         a9:27:08:39:41:d8:11:ce:11:d5:70:cc:7f:47:9b:12:ff:16:
         28:78:7e:72:55:f5:7c:d5:0d:4c:9a:9e:0c:d6:7b:44:bf:3d:
         64:02:f1:7a:7b:90:7c:4d:7a:2c:68:62:3b:2b:d6:7d:f8:98:
         48:a0:c8:2d:7b:ab:64:a0:61:56:03:b1:ef:57:d4:99:e8:14:
         bb:a1:08:3f:6d:b3:b1:43:e3:a9:85:78:89:ec:b6:fa:96:f0:
         11:ae:76:ca:d1:89:6b:ca:74:53:cb:d6:dd:31:c3:51:5e:21:
         62:4d:b7:e3
-----BEGIN CERTIFICATE-----
MIICnzCCAYegAwIBAgICEA0wDQYJKoZIhvcNAQELBQAwIjEOMAwGA1UEChMFc2ou
c2UxEDAOBgNVBAMTB3NqLnNlQ0EwHhcNMTYwOTIwMTAxODA4WhcNMTcwOTIwMTAx
ODA4WjBiMQ4wDAYDVQQKDAVzai5zZTEtMCsGA1UELhMkZTE5Y2NlNzMtMmRmZS00
YmVmLTk0MTktODcyOThmMTFkM2U1MSEwHwYDVQQDDBhzZS5zaisrKytTdGhsbV9J
bmZvQm9hcmQwWTATBgcqhkjOPQIBBggqhkjOPQMBBwNCAARaCZe9zZjS0jhIjAGD
1Eb2qspYrj4vqrhFDxXlgm/6ZxBxP4dzNLMs1uFrQdzzq48BejXY5TrPSLSGhDEo
Jt6bo2owaDAdBgNVHQ4EFgQUmjfUedrPy8yAlwtEjgpY/P98AmYwPAYDVR0jBDUw
M6EmpCQwIjEOMAwGA1UEChMFc2ouc2UxEDAOBgNVBAMTB3NqLnNlQ0GCCQCFzs57
SAEckjAJBgNVHRMEAjAAMA0GCSqGSIb3DQEBCwUAA4IBAQCFzSFjGIeNw+xYSGPG
cmPprPiOD+oJJnEy6PptUY+SJa2qq2G0122snTJ6FYUtlgXWCZg8J6/rD2oYVl5O
lbVsjE/JjSrSkXhKY4fjnZ2cp24uAuPedkq7URRi9mJXH6Uxh8tO1p4E4JLXajIw
jHmzzr/AXxZgFB78K+X2W7F+y5uwp4mkWZg9ZWAeAyap5ZmpJwg5QdgRzhHVcMx/
R5sS/xYoeH5yVfV81Q1Mmp4M1ntEvz1kAvF6e5B8TXosaGI7K9Z9+JhIoMgte6tk
oGFWA7HvV9SZ6BS7oQg/bbOxQ+OphXiJ7Lb6lvARrnbK0YlrynRTy9bdMcNRXiFi
Tbfj
-----END CERTIFICATE-----
