Certificate:
    Data:
        Version: 3 (0x2)
        Serial Number: 4097 (0x1001)
    Signature Algorithm: sha256WithRSAEncryption
        Issuer: O=SJ, CN=SJCA
        Validity
            Not Before: Sep 28 08:37:45 2016 GMT
            Not After : Sep 28 08:37:45 2017 GMT
        Subject: O=SJ/dnQualifier=ae7d438d-7913-4a72-9aa7-4a79ef2af01b, CN=SJ++++ELX
        Subject Public Key Info:
            Public Key Algorithm: id-ecPublicKey
                Public-Key: (256 bit)
                pub: 
                    04:ce:99:f6:33:eb:94:ab:a0:86:09:52:71:7b:f3:
                    13:d4:b5:60:0c:6e:09:0c:3f:f7:c7:08:1b:c4:48:
                    d4:5d:c5:d1:91:3c:07:c7:f9:95:c4:fc:04:2e:6c:
                    ae:13:89:8b:70:c4:28:f0:0f:01:30:55:f6:47:3d:
                    cc:79:c0:8f:2a
                ASN1 OID: prime256v1
        X509v3 extensions:
            X509v3 Subject Key Identifier: 
                14:A4:A7:3D:34:2E:D4:31:FA:F0:62:14:E9:0C:75:02:14:F2:63:9B
            X509v3 Authority Key Identifier: 
                DirName:/O=SJ/CN=SJCA
                serial:DC:DC:34:84:FD:8B:86:0F

            X509v3 Basic Constraints: 
                CA:FALSE
    Signature Algorithm: sha256WithRSAEncryption
         2c:6c:7c:eb:dc:07:42:f1:c9:d8:6f:d5:7f:d7:77:06:26:3c:
         bd:28:98:9b:33:9e:b0:7e:8d:87:4d:f3:a5:25:a4:86:84:43:
         7a:e1:00:0c:0b:e9:32:a8:c3:15:60:31:82:6d:31:40:f9:29:
         46:86:4f:7e:8b:1f:88:18:5e:c7:60:54:06:fb:3f:90:16:e7:
         13:0d:b9:f2:c2:6e:5f:4b:83:8d:46:85:c3:74:8d:71:d4:88:
         32:4b:87:ad:65:c6:47:8d:ec:52:2e:91:59:d8:c5:20:97:10:
         1a:2f:36:0d:db:74:a8:e2:e3:bf:d2:77:10:b8:7e:df:6f:85:
         04:86:d4:da:cf:1b:7f:73:f1:d1:06:a4:57:c5:8a:28:5b:b2:
         9a:b0:ce:74:23:87:3e:2a:1b:43:05:06:df:e4:53:3e:bb:a9:
         83:b7:44:27:92:9c:1f:48:19:fb:38:4e:15:16:6d:4d:d7:4e:
         4c:bc:66:8e:cd:1d:cb:ff:23:57:d7:a0:fb:fb:af:25:09:d9:
         26:32:3d:23:44:d2:98:41:24:b1:58:13:cf:6c:19:6f:6c:cc:
         12:f7:c4:06:e6:75:a4:0c:4f:11:36:44:ac:27:74:01:17:aa:
         86:5d:d7:16:3a:61:48:42:c9:ff:b1:4d:3f:6c:c8:52:58:b3:
         dd:65:52:80
-----BEGIN CERTIFICATE-----
MIICgTCCAWmgAwIBAgICEAEwDQYJKoZIhvcNAQELBQAwHDELMAkGA1UEChMCU0ox
DTALBgNVBAMTBFNKQ0EwHhcNMTYwOTI4MDgzNzQ1WhcNMTcwOTI4MDgzNzQ1WjBQ
MQswCQYDVQQKDAJTSjEtMCsGA1UELhMkYWU3ZDQzOGQtNzkxMy00YTcyLTlhYTct
NGE3OWVmMmFmMDFiMRIwEAYDVQQDDAlTSisrKytFTFgwWTATBgcqhkjOPQIBBggq
hkjOPQMBBwNCAATOmfYz65SroIYJUnF78xPUtWAMbgkMP/fHCBvESNRdxdGRPAfH
+ZXE/AQubK4TiYtwxCjwDwEwVfZHPcx5wI8qo2QwYjAdBgNVHQ4EFgQUFKSnPTQu
1DH68GIU6Qx1AhTyY5swNgYDVR0jBC8wLaEgpB4wHDELMAkGA1UEChMCU0oxDTAL
BgNVBAMTBFNKQ0GCCQDc3DSE/YuGDzAJBgNVHRMEAjAAMA0GCSqGSIb3DQEBCwUA
A4IBAQAsbHzr3AdC8cnYb9V/13cGJjy9KJibM56wfo2HTfOlJaSGhEN64QAMC+ky
qMMVYDGCbTFA+SlGhk9+ix+IGF7HYFQG+z+QFucTDbnywm5fS4ONRoXDdI1x1Igy
S4etZcZHjexSLpFZ2MUglxAaLzYN23So4uO/0ncQuH7fb4UEhtTazxt/c/HRBqRX
xYooW7KasM50I4c+KhtDBQbf5FM+u6mDt0QnkpwfSBn7OE4VFm1N105MvGaOzR3L
/yNX16D7+68lCdkmMj0jRNKYQSSxWBPPbBlvbMwS98QG5nWkDE8RNkSsJ3QBF6qG
XdcWOmFIQsn/sU0/bMhSWLPdZVKA
-----END CERTIFICATE-----
