Certificate:
    Data:
        Version: 3 (0x2)
        Serial Number: 4105 (0x1009)
    Signature Algorithm: sha256WithRSAEncryption
        Issuer: O=sj.se, CN=sj.seCA
        Validity
            Not Before: Sep 20 10:17:38 2016 GMT
            Not After : Sep 20 10:17:38 2017 GMT
        Subject: O=sj.se/dnQualifier=b9d4b5e5-ee7a-4dab-9b32-3bbd06b5573d, CN=se.sj++++Lund_RFID
        Subject Public Key Info:
            Public Key Algorithm: id-ecPublicKey
                Public-Key: (256 bit)
                pub: 
                    04:80:f4:bc:8e:83:e7:d6:2f:93:8a:b7:b8:2c:2b:
                    f2:df:48:6c:d3:12:6a:90:ed:78:7c:0b:c9:46:5f:
                    05:11:91:cf:f3:2b:e8:47:11:28:9c:a4:7e:01:59:
                    6b:89:ee:46:cb:58:9c:aa:e2:cf:ed:8e:7e:98:a9:
                    71:bf:3b:14:dc
                ASN1 OID: prime256v1
        X509v3 extensions:
            X509v3 Subject Key Identifier: 
                06:09:F7:87:ED:7D:C1:25:A8:93:0D:AB:4B:89:01:AB:99:54:06:F5
            X509v3 Authority Key Identifier: 
                DirName:/O=sj.se/CN=sj.seCA
                serial:85:CE:CE:7B:48:01:1C:92

            X509v3 Basic Constraints: 
                CA:FALSE
    Signature Algorithm: sha256WithRSAEncryption
         80:86:9f:7c:ef:38:bc:2b:11:65:d2:5c:c7:e5:62:67:af:24:
         c9:f5:a0:7b:71:9d:b4:49:87:ec:cc:1e:4c:84:8b:30:52:b4:
         56:52:4d:f3:67:88:e1:84:ec:9e:32:97:bd:43:ad:2e:d0:01:
         c8:e0:b7:55:ec:71:6d:17:81:e5:fa:76:c5:b9:24:f0:8b:e2:
         a5:f6:c9:96:aa:89:4a:86:34:3b:04:da:4a:fb:98:c5:ba:2b:
         84:7a:e4:c7:df:4e:8f:ab:51:9c:1f:ec:53:7e:34:4e:c0:53:
         9e:e4:1b:ae:04:56:bd:b8:ab:29:2e:f4:ec:4f:56:4d:b6:b5:
         50:70:a0:0b:7f:5b:35:e1:42:26:d7:31:7d:45:74:87:28:c9:
         c6:4e:07:48:55:9e:48:69:32:06:db:ce:b2:2a:13:0b:87:de:
         68:5b:50:d5:25:e5:15:26:63:34:06:f0:e3:09:80:77:e5:99:
         7a:f7:df:77:ee:13:cc:9b:b0:d3:26:0f:ef:f2:9a:c2:ff:82:
         af:3c:af:1f:3b:b2:05:9f:f5:4f:2e:3d:eb:9a:f2:9c:da:c2:
         74:0a:e2:a1:69:d7:07:94:91:80:7e:f3:5f:11:c8:bc:b8:bb:
         b0:92:8d:2f:b6:5e:f8:c6:81:8b:97:32:34:e8:81:03:0d:e7:
         45:a9:98:bf
-----BEGIN CERTIFICATE-----
MIICmTCCAYGgAwIBAgICEAkwDQYJKoZIhvcNAQELBQAwIjEOMAwGA1UEChMFc2ou
c2UxEDAOBgNVBAMTB3NqLnNlQ0EwHhcNMTYwOTIwMTAxNzM4WhcNMTcwOTIwMTAx
NzM4WjBcMQ4wDAYDVQQKDAVzai5zZTEtMCsGA1UELhMkYjlkNGI1ZTUtZWU3YS00
ZGFiLTliMzItM2JiZDA2YjU1NzNkMRswGQYDVQQDDBJzZS5zaisrKytMdW5kX1JG
SUQwWTATBgcqhkjOPQIBBggqhkjOPQMBBwNCAASA9LyOg+fWL5OKt7gsK/LfSGzT
EmqQ7Xh8C8lGXwURkc/zK+hHESicpH4BWWuJ7kbLWJyq4s/tjn6YqXG/OxTco2ow
aDAdBgNVHQ4EFgQUBgn3h+19wSWokw2rS4kBq5lUBvUwPAYDVR0jBDUwM6EmpCQw
IjEOMAwGA1UEChMFc2ouc2UxEDAOBgNVBAMTB3NqLnNlQ0GCCQCFzs57SAEckjAJ
BgNVHRMEAjAAMA0GCSqGSIb3DQEBCwUAA4IBAQCAhp987zi8KxFl0lzH5WJnryTJ
9aB7cZ20SYfszB5MhIswUrRWUk3zZ4jhhOyeMpe9Q60u0AHI4LdV7HFtF4Hl+nbF
uSTwi+Kl9smWqolKhjQ7BNpK+5jFuiuEeuTH306Pq1GcH+xTfjROwFOe5BuuBFa9
uKspLvTsT1ZNtrVQcKALf1s14UIm1zF9RXSHKMnGTgdIVZ5IaTIG286yKhMLh95o
W1DVJeUVJmM0BvDjCYB35Zl699937hPMm7DTJg/v8prC/4KvPK8fO7IFn/VPLj3r
mvKc2sJ0CuKhadcHlJGAfvNfEci8uLuwko0vtl74xoGLlzI06IEDDedFqZi/
-----END CERTIFICATE-----
