Certificate:
    Data:
        Version: 3 (0x2)
        Serial Number: 4099 (0x1003)
    Signature Algorithm: sha256WithRSAEncryption
        Issuer: O=SJ, CN=SJCA
        Validity
            Not Before: Sep 28 08:37:45 2016 GMT
            Not After : Sep 28 08:37:45 2017 GMT
        Subject: O=SJ/dnQualifier=d3c0fc1e-1e37-4705-a44b-546b1ce949ce, CN=SJ++++Lund_Camera_Sensehat
        Subject Public Key Info:
            Public Key Algorithm: id-ecPublicKey
                Public-Key: (256 bit)
                pub: 
                    04:f8:bc:00:fb:80:9c:2f:b7:41:a1:74:f4:bb:63:
                    a3:94:08:5e:c7:0c:bf:14:20:43:09:ae:4d:a2:56:
                    e7:df:f3:47:af:53:2f:4c:3f:a0:3c:36:04:b5:38:
                    64:44:ef:fa:e4:aa:73:16:90:56:44:a6:6b:b9:67:
                    f0:52:28:e2:e5
                ASN1 OID: prime256v1
        X509v3 extensions:
            X509v3 Subject Key Identifier: 
                6C:4C:95:E5:7C:1A:81:4B:A8:39:AB:61:52:B4:E9:C8:E7:79:15:9A
            X509v3 Authority Key Identifier: 
                DirName:/O=SJ/CN=SJCA
                serial:DC:DC:34:84:FD:8B:86:0F

            X509v3 Basic Constraints: 
                CA:FALSE
    Signature Algorithm: sha256WithRSAEncryption
         aa:c0:52:06:67:50:cc:39:e4:a5:70:d9:64:37:0d:68:24:0d:
         ac:24:0d:6c:c0:38:26:e5:e3:21:23:39:8f:0b:cb:4e:ca:2e:
         2b:c9:ad:87:ef:df:b8:0a:ab:30:b9:b8:87:73:b0:db:a2:8d:
         b7:f0:29:7e:d3:8e:01:ed:30:08:9d:ea:4c:35:ad:9d:41:96:
         4f:c0:0f:36:ae:05:f9:d6:31:3a:b8:38:ae:26:19:1b:f3:a9:
         58:f4:15:cd:52:aa:90:a5:cf:a3:2d:0f:7a:2e:d6:e2:cd:ed:
         3c:79:b6:ed:fd:cf:36:b2:2c:c2:d4:d6:99:3e:10:74:81:90:
         db:2d:fe:b7:70:a2:e3:90:1d:a3:df:25:8f:28:77:2c:70:aa:
         70:32:90:e5:d4:d2:dd:5e:d9:a0:fe:63:69:53:30:d9:8b:90:
         8e:59:96:42:58:48:aa:59:b4:c2:00:f3:a2:a4:d0:97:56:6a:
         51:83:ea:7c:60:2b:0f:39:96:71:01:71:f6:d7:85:d1:e7:a0:
         4a:b2:de:87:47:04:2e:dd:8d:73:4a:64:4f:0b:07:6b:38:6e:
         b1:3f:44:aa:31:30:3b:90:fb:b8:42:56:fd:53:1b:c7:79:c3:
         0e:53:45:90:34:07:a9:73:bf:86:bc:b0:b1:5d:44:2c:c3:e8:
         80:b9:d6:9d
-----BEGIN CERTIFICATE-----
MIICkjCCAXqgAwIBAgICEAMwDQYJKoZIhvcNAQELBQAwHDELMAkGA1UEChMCU0ox
DTALBgNVBAMTBFNKQ0EwHhcNMTYwOTI4MDgzNzQ1WhcNMTcwOTI4MDgzNzQ1WjBh
MQswCQYDVQQKDAJTSjEtMCsGA1UELhMkZDNjMGZjMWUtMWUzNy00NzA1LWE0NGIt
NTQ2YjFjZTk0OWNlMSMwIQYDVQQDDBpTSisrKytMdW5kX0NhbWVyYV9TZW5zZWhh
dDBZMBMGByqGSM49AgEGCCqGSM49AwEHA0IABPi8APuAnC+3QaF09Ltjo5QIXscM
vxQgQwmuTaJW59/zR69TL0w/oDw2BLU4ZETv+uSqcxaQVkSma7ln8FIo4uWjZDBi
MB0GA1UdDgQWBBRsTJXlfBqBS6g5q2FStOnI53kVmjA2BgNVHSMELzAtoSCkHjAc
MQswCQYDVQQKEwJTSjENMAsGA1UEAxMEU0pDQYIJANzcNIT9i4YPMAkGA1UdEwQC
MAAwDQYJKoZIhvcNAQELBQADggEBAKrAUgZnUMw55KVw2WQ3DWgkDawkDWzAOCbl
4yEjOY8Ly07KLivJrYfv37gKqzC5uIdzsNuijbfwKX7TjgHtMAid6kw1rZ1Blk/A
DzauBfnWMTq4OK4mGRvzqVj0Fc1SqpClz6MtD3ou1uLN7Tx5tu39zzayLMLU1pk+
EHSBkNst/rdwouOQHaPfJY8odyxwqnAykOXU0t1e2aD+Y2lTMNmLkI5ZlkJYSKpZ
tMIA86Kk0JdWalGD6nxgKw85lnEBcfbXhdHnoEqy3odHBC7djXNKZE8LB2s4brE/
RKoxMDuQ+7hCVv1TG8d5ww5TRZA0B6lzv4a8sLFdRCzD6IC51p0=
-----END CERTIFICATE-----
