Certificate:
    Data:
        Version: 3 (0x2)
        Serial Number: 4097 (0x1001)
    Signature Algorithm: sha256WithRSAEncryption
        Issuer: O=SJ, CN=SJCA
        Validity
            Not Before: Sep 28 08:44:39 2016 GMT
            Not After : Sep 28 08:44:39 2017 GMT
        Subject: O=SJ/dnQualifier=ecc40603-3ea8-4bff-918e-571a3d899552, CN=SJ++++ELX
        Subject Public Key Info:
            Public Key Algorithm: id-ecPublicKey
                Public-Key: (256 bit)
                pub: 
                    04:e8:13:b2:cf:dd:32:75:81:29:b5:f5:db:1c:37:
                    0f:90:0a:d8:9e:66:3a:9c:57:04:38:ef:96:e6:03:
                    d1:4b:83:35:82:54:51:f2:32:6a:da:c9:31:09:dd:
                    f8:50:47:f1:d0:fd:19:56:53:79:dc:87:7a:ef:25:
                    38:80:52:e4:91
                ASN1 OID: prime256v1
        X509v3 extensions:
            X509v3 Subject Key Identifier: 
                89:F8:3A:43:FB:C3:31:6A:6C:34:8F:C6:45:41:66:53:C4:E7:D2:68
            X509v3 Authority Key Identifier: 
                DirName:/O=SJ/CN=SJCA
                serial:FA:3E:EA:FA:E5:52:B3:13

            X509v3 Basic Constraints: 
                CA:FALSE
    Signature Algorithm: sha256WithRSAEncryption
         0e:44:64:eb:41:37:9e:e3:b4:81:5c:a3:73:10:19:73:d5:73:
         c8:bd:25:e1:bc:17:37:08:94:88:c7:d5:d5:04:9a:c2:86:dc:
         1e:08:13:38:db:15:50:78:5b:5c:a2:49:cf:07:4f:85:8b:d5:
         3e:b7:f6:59:75:5c:69:a7:58:bc:a3:e5:41:55:96:23:d2:e1:
         b3:a4:9e:df:62:84:c2:14:89:e8:bc:d1:4e:53:00:fe:ff:69:
         35:6e:dd:83:ae:e5:74:17:b7:f7:e3:3f:23:2a:dd:71:dd:b9:
         84:b5:04:37:ea:8b:b7:72:58:22:3a:11:df:70:96:7c:29:3a:
         fb:a9:c2:c3:f1:38:88:34:d2:22:93:27:54:58:84:6b:12:f3:
         37:cf:6e:a3:b5:b3:16:bc:50:37:6c:e5:95:f9:39:8c:a9:41:
         51:9a:bb:27:39:70:1d:06:c6:a7:98:da:07:55:97:6e:0f:aa:
         d0:2c:e2:63:1d:3f:7f:dd:77:ed:13:29:a2:3e:ea:a5:40:9b:
         ec:10:ac:d7:9d:c6:57:2d:f9:e7:2f:06:23:d5:3c:dc:53:f5:
         ad:82:78:29:99:e9:ca:f5:d1:8f:b2:b2:3e:b3:f6:d3:91:ca:
         cf:dd:01:20:64:0c:a3:1a:85:db:fe:5c:78:18:5f:25:c8:62:
         9d:13:3f:64
-----BEGIN CERTIFICATE-----
MIICgTCCAWmgAwIBAgICEAEwDQYJKoZIhvcNAQELBQAwHDELMAkGA1UEChMCU0ox
DTALBgNVBAMTBFNKQ0EwHhcNMTYwOTI4MDg0NDM5WhcNMTcwOTI4MDg0NDM5WjBQ
MQswCQYDVQQKDAJTSjEtMCsGA1UELhMkZWNjNDA2MDMtM2VhOC00YmZmLTkxOGUt
NTcxYTNkODk5NTUyMRIwEAYDVQQDDAlTSisrKytFTFgwWTATBgcqhkjOPQIBBggq
hkjOPQMBBwNCAAToE7LP3TJ1gSm19dscNw+QCtieZjqcVwQ475bmA9FLgzWCVFHy
MmrayTEJ3fhQR/HQ/RlWU3nch3rvJTiAUuSRo2QwYjAdBgNVHQ4EFgQUifg6Q/vD
MWpsNI/GRUFmU8Tn0mgwNgYDVR0jBC8wLaEgpB4wHDELMAkGA1UEChMCU0oxDTAL
BgNVBAMTBFNKQ0GCCQD6Pur65VKzEzAJBgNVHRMEAjAAMA0GCSqGSIb3DQEBCwUA
A4IBAQAORGTrQTee47SBXKNzEBlz1XPIvSXhvBc3CJSIx9XVBJrChtweCBM42xVQ
eFtcoknPB0+Fi9U+t/ZZdVxpp1i8o+VBVZYj0uGzpJ7fYoTCFInovNFOUwD+/2k1
bt2DruV0F7f34z8jKt1x3bmEtQQ36ou3clgiOhHfcJZ8KTr7qcLD8TiINNIikydU
WIRrEvM3z26jtbMWvFA3bOWV+TmMqUFRmrsnOXAdBsanmNoHVZduD6rQLOJjHT9/
3XftEymiPuqlQJvsEKzXncZXLfnnLwYj1TzcU/WtgngpmenK9dGPsrI+s/bTkcrP
3QEgZAyjGoXb/lx4GF8lyGKdEz9k
-----END CERTIFICATE-----
