Certificate:
    Data:
        Version: 3 (0x2)
        Serial Number: 4099 (0x1003)
    Signature Algorithm: sha256WithRSAEncryption
        Issuer: O=SJ, CN=SJCA
        Validity
            Not Before: Sep 28 08:44:39 2016 GMT
            Not After : Sep 28 08:44:39 2017 GMT
        Subject: O=SJ/dnQualifier=96b40b95-d23c-48b5-b2b8-3d152bf3bfb7, CN=SJ++++Lund_Camera_Sensehat
        Subject Public Key Info:
            Public Key Algorithm: id-ecPublicKey
                Public-Key: (256 bit)
                pub: 
                    04:e1:71:24:40:a8:03:9f:c0:e0:b6:73:c1:c5:0f:
                    2a:f1:b6:fd:8a:6d:0a:87:2f:9d:13:f9:17:b4:3f:
                    06:09:8a:a6:1b:af:57:96:1f:7d:f4:e0:09:a0:ab:
                    83:06:49:f3:6f:75:7d:1e:22:dc:cb:68:c6:dc:8a:
                    ff:55:a7:19:40
                ASN1 OID: prime256v1
        X509v3 extensions:
            X509v3 Subject Key Identifier: 
                3C:84:B0:F8:5B:B6:BC:A2:A1:FF:54:5A:9B:F6:5A:94:FB:CF:1E:4B
            X509v3 Authority Key Identifier: 
                DirName:/O=SJ/CN=SJCA
                serial:FA:3E:EA:FA:E5:52:B3:13

            X509v3 Basic Constraints: 
                CA:FALSE
    Signature Algorithm: sha256WithRSAEncryption
         97:42:35:1e:b6:62:23:ea:73:fc:f5:16:b6:22:6c:59:45:24:
         97:ef:6e:ae:a4:7d:fa:6b:d9:eb:05:b4:29:f6:35:b2:61:ee:
         44:f8:23:9d:bf:a9:b8:83:95:e3:c9:44:9b:5f:2c:4e:48:1d:
         03:dc:3e:ab:3e:81:6e:d0:91:c9:69:20:13:99:a3:5d:36:bf:
         d9:93:c4:5b:aa:c1:51:2e:67:d9:e9:63:ca:f9:9c:87:8b:f9:
         2e:d6:57:33:f7:16:e0:d8:6d:c5:ab:66:08:68:21:d2:40:0c:
         e3:03:17:6b:7a:84:94:00:2c:1e:68:9a:0b:e5:49:c8:10:da:
         ba:70:c6:b2:5f:61:27:0b:af:c8:3a:e5:09:a3:43:8b:3f:24:
         47:85:7e:f3:f8:29:6b:49:79:77:f3:2c:5c:65:7c:02:18:3a:
         5e:eb:fd:32:28:86:2e:47:ec:de:1b:67:0a:12:12:4a:3e:12:
         c5:e4:f9:c8:b8:de:a9:26:b2:00:91:d5:1e:1c:d2:a0:03:7d:
         00:55:c8:1c:00:0d:5b:3d:67:07:4c:09:b7:d1:64:26:e1:6b:
         c8:44:fa:f5:ec:3a:2e:d0:78:bf:2c:bc:64:36:fc:08:86:fc:
         47:88:c3:fc:d7:a3:9f:67:ff:e8:15:cb:d7:2b:67:ce:eb:cb:
         fb:3c:4f:a3
-----BEGIN CERTIFICATE-----
MIICkjCCAXqgAwIBAgICEAMwDQYJKoZIhvcNAQELBQAwHDELMAkGA1UEChMCU0ox
DTALBgNVBAMTBFNKQ0EwHhcNMTYwOTI4MDg0NDM5WhcNMTcwOTI4MDg0NDM5WjBh
MQswCQYDVQQKDAJTSjEtMCsGA1UELhMkOTZiNDBiOTUtZDIzYy00OGI1LWIyYjgt
M2QxNTJiZjNiZmI3MSMwIQYDVQQDDBpTSisrKytMdW5kX0NhbWVyYV9TZW5zZWhh
dDBZMBMGByqGSM49AgEGCCqGSM49AwEHA0IABOFxJECoA5/A4LZzwcUPKvG2/Ypt
CocvnRP5F7Q/BgmKphuvV5YfffTgCaCrgwZJ8291fR4i3MtoxtyK/1WnGUCjZDBi
MB0GA1UdDgQWBBQ8hLD4W7a8oqH/VFqb9lqU+88eSzA2BgNVHSMELzAtoSCkHjAc
MQswCQYDVQQKEwJTSjENMAsGA1UEAxMEU0pDQYIJAPo+6vrlUrMTMAkGA1UdEwQC
MAAwDQYJKoZIhvcNAQELBQADggEBAJdCNR62YiPqc/z1FrYibFlFJJfvbq6kffpr
2esFtCn2NbJh7kT4I52/qbiDlePJRJtfLE5IHQPcPqs+gW7QkclpIBOZo102v9mT
xFuqwVEuZ9npY8r5nIeL+S7WVzP3FuDYbcWrZghoIdJADOMDF2t6hJQALB5omgvl
ScgQ2rpwxrJfYScLr8g65QmjQ4s/JEeFfvP4KWtJeXfzLFxlfAIYOl7r/TIohi5H
7N4bZwoSEko+EsXk+ci43qkmsgCR1R4c0qADfQBVyBwADVs9ZwdMCbfRZCbha8hE
+vXsOi7QeL8svGQ2/AiG/EeIw/zXo59n/+gVy9crZ87ry/s8T6M=
-----END CERTIFICATE-----
