Certificate:
    Data:
        Version: 3 (0x2)
        Serial Number: 4103 (0x1007)
    Signature Algorithm: sha256WithRSAEncryption
        Issuer: O=SJ, CN=SJCA
        Validity
            Not Before: Sep 28 08:37:45 2016 GMT
            Not After : Sep 28 08:37:45 2017 GMT
        Subject: O=SJ/dnQualifier=9f596a18-067c-420a-8496-b23dfc2f9232, CN=SJ++++Lund_InfoBoard
        Subject Public Key Info:
            Public Key Algorithm: id-ecPublicKey
                Public-Key: (256 bit)
                pub: 
                    04:fc:41:4e:16:ca:bf:c7:41:5d:53:c3:5a:fc:fc:
                    85:92:53:71:83:ed:d2:06:95:92:12:06:8c:dd:30:
                    cc:b8:95:92:b1:cf:ce:f3:d9:87:13:db:71:c0:d6:
                    80:3c:c8:25:ae:ae:e5:eb:ce:05:69:6d:a6:1b:7b:
                    a9:7d:3c:34:b6
                ASN1 OID: prime256v1
        X509v3 extensions:
            X509v3 Subject Key Identifier: 
                8C:9F:56:49:AD:A3:7A:8F:A7:9B:23:5F:52:1F:D1:90:95:DA:E3:EC
            X509v3 Authority Key Identifier: 
                DirName:/O=SJ/CN=SJCA
                serial:DC:DC:34:84:FD:8B:86:0F

            X509v3 Basic Constraints: 
                CA:FALSE
    Signature Algorithm: sha256WithRSAEncryption
         26:23:a2:64:24:ce:c6:c2:61:80:e8:ff:47:5c:93:cb:71:f4:
         bb:bc:c3:17:f4:85:1b:6a:81:c3:2d:39:ba:d4:c7:f1:52:c5:
         b2:fc:8e:f4:4b:a3:9b:46:e6:b6:9c:8a:dd:ab:f6:c4:c3:4e:
         63:6c:60:b8:91:a5:42:34:26:88:27:50:6d:0c:ab:1c:3d:01:
         72:d0:bb:4b:19:b2:9d:e8:d7:5a:7b:86:4c:78:74:0f:3e:2d:
         80:c0:3d:83:a5:fc:f5:21:0f:30:9f:97:2c:fb:6a:04:6b:b1:
         29:da:3d:72:81:60:16:ca:45:73:4b:3e:7f:06:64:e3:97:af:
         55:43:2e:62:57:48:a9:79:94:0b:d7:00:1f:6a:d4:9d:11:36:
         00:88:07:cb:8e:e7:0b:de:48:32:1f:e5:1d:32:52:6a:02:57:
         42:04:56:df:1a:f6:09:9b:86:ac:ca:56:a2:8c:5b:e4:5e:f9:
         16:df:eb:62:b4:ae:15:cc:e1:6f:10:f3:79:14:a1:d5:65:81:
         8d:e6:1b:ff:cc:f8:62:5a:c9:a9:d7:99:37:04:c7:7a:19:aa:
         96:fc:2f:3c:2d:f3:8b:58:81:77:4d:8f:3e:de:e8:63:fa:20:
         48:d3:de:c0:19:72:4e:90:95:f2:9f:32:6c:11:4a:b2:c5:ed:
         77:ec:bb:3c
-----BEGIN CERTIFICATE-----
MIICjDCCAXSgAwIBAgICEAcwDQYJKoZIhvcNAQELBQAwHDELMAkGA1UEChMCU0ox
DTALBgNVBAMTBFNKQ0EwHhcNMTYwOTI4MDgzNzQ1WhcNMTcwOTI4MDgzNzQ1WjBb
MQswCQYDVQQKDAJTSjEtMCsGA1UELhMkOWY1OTZhMTgtMDY3Yy00MjBhLTg0OTYt
YjIzZGZjMmY5MjMyMR0wGwYDVQQDDBRTSisrKytMdW5kX0luZm9Cb2FyZDBZMBMG
ByqGSM49AgEGCCqGSM49AwEHA0IABPxBThbKv8dBXVPDWvz8hZJTcYPt0gaVkhIG
jN0wzLiVkrHPzvPZhxPbccDWgDzIJa6u5evOBWltpht7qX08NLajZDBiMB0GA1Ud
DgQWBBSMn1ZJraN6j6ebI19SH9GQldrj7DA2BgNVHSMELzAtoSCkHjAcMQswCQYD
VQQKEwJTSjENMAsGA1UEAxMEU0pDQYIJANzcNIT9i4YPMAkGA1UdEwQCMAAwDQYJ
KoZIhvcNAQELBQADggEBACYjomQkzsbCYYDo/0dck8tx9Lu8wxf0hRtqgcMtObrU
x/FSxbL8jvRLo5tG5racit2r9sTDTmNsYLiRpUI0JognUG0Mqxw9AXLQu0sZsp3o
11p7hkx4dA8+LYDAPYOl/PUhDzCflyz7agRrsSnaPXKBYBbKRXNLPn8GZOOXr1VD
LmJXSKl5lAvXAB9q1J0RNgCIB8uO5wveSDIf5R0yUmoCV0IEVt8a9gmbhqzKVqKM
W+Re+Rbf62K0rhXM4W8Q83kUodVlgY3mG//M+GJayanXmTcEx3oZqpb8Lzwt84tY
gXdNjz7e6GP6IEjT3sAZck6QlfKfMmwRSrLF7Xfsuzw=
-----END CERTIFICATE-----
