Certificate:
    Data:
        Version: 3 (0x2)
        Serial Number: 4103 (0x1007)
    Signature Algorithm: sha256WithRSAEncryption
        Issuer: O=SJ, CN=SJCA
        Validity
            Not Before: Sep 28 08:44:40 2016 GMT
            Not After : Sep 28 08:44:40 2017 GMT
        Subject: O=SJ/dnQualifier=23275aba-5da0-45e6-a8d3-c3fac1500226, CN=SJ++++Lund_InfoBoard
        Subject Public Key Info:
            Public Key Algorithm: id-ecPublicKey
                Public-Key: (256 bit)
                pub: 
                    04:29:a6:5b:8c:35:91:0e:4e:98:8d:76:b2:15:ca:
                    af:da:ec:65:70:df:c1:34:46:f2:c0:3b:03:ba:ba:
                    08:8b:d5:60:37:fc:63:55:15:16:26:3b:6f:76:c1:
                    31:fb:b2:5f:5f:42:f6:a8:30:4b:53:da:cc:46:a0:
                    d1:6c:97:79:55
                ASN1 OID: prime256v1
        X509v3 extensions:
            X509v3 Subject Key Identifier: 
                8A:20:79:6A:68:1E:3E:1B:2D:E2:47:EE:45:7A:FA:14:C6:EC:3A:06
            X509v3 Authority Key Identifier: 
                DirName:/O=SJ/CN=SJCA
                serial:FA:3E:EA:FA:E5:52:B3:13

            X509v3 Basic Constraints: 
                CA:FALSE
    Signature Algorithm: sha256WithRSAEncryption
         41:26:6c:51:bc:8d:0c:82:5c:ce:0c:f2:d2:a4:b2:5a:b7:ea:
         a2:c6:e3:8e:5b:7d:fc:a7:69:68:ac:c3:ed:ad:23:2a:89:8f:
         a3:cd:89:05:19:90:f5:c4:49:eb:7b:34:8f:1d:e3:77:e2:c7:
         f3:d4:fa:98:9d:15:69:23:ec:84:e2:9d:3b:c7:ea:32:2d:d3:
         7d:17:fb:46:95:d7:1f:62:55:7c:82:29:ec:6b:02:59:8e:26:
         79:d7:65:c2:3f:ad:8b:69:49:22:73:b4:b3:65:b2:46:de:dd:
         1c:5c:01:fc:2d:6d:81:fd:b5:bf:4d:3c:fb:5e:be:1d:73:b1:
         8f:4e:40:06:83:ee:4e:2a:4c:ef:ab:98:3c:71:5c:2d:e7:45:
         49:74:0e:3b:52:32:05:85:1d:2a:2d:de:65:67:43:dc:38:b8:
         84:2f:61:96:25:e5:95:3e:93:72:54:e4:2e:17:fb:b6:51:76:
         96:60:6b:49:90:b9:2d:6d:72:4e:78:0d:c0:58:00:e3:bc:21:
         1f:89:df:53:68:e5:a5:a2:d0:0c:0e:ef:eb:9d:5d:91:df:81:
         22:f2:22:cc:04:b7:77:7c:ad:5f:fb:dc:a9:b9:a6:78:87:8d:
         55:44:42:af:36:4a:6c:a7:df:8a:29:3f:4e:ee:6b:41:fa:6c:
         64:6e:7b:e4
-----BEGIN CERTIFICATE-----
MIICjDCCAXSgAwIBAgICEAcwDQYJKoZIhvcNAQELBQAwHDELMAkGA1UEChMCU0ox
DTALBgNVBAMTBFNKQ0EwHhcNMTYwOTI4MDg0NDQwWhcNMTcwOTI4MDg0NDQwWjBb
MQswCQYDVQQKDAJTSjEtMCsGA1UELhMkMjMyNzVhYmEtNWRhMC00NWU2LWE4ZDMt
YzNmYWMxNTAwMjI2MR0wGwYDVQQDDBRTSisrKytMdW5kX0luZm9Cb2FyZDBZMBMG
ByqGSM49AgEGCCqGSM49AwEHA0IABCmmW4w1kQ5OmI12shXKr9rsZXDfwTRG8sA7
A7q6CIvVYDf8Y1UVFiY7b3bBMfuyX19C9qgwS1PazEag0WyXeVWjZDBiMB0GA1Ud
DgQWBBSKIHlqaB4+Gy3iR+5FevoUxuw6BjA2BgNVHSMELzAtoSCkHjAcMQswCQYD
VQQKEwJTSjENMAsGA1UEAxMEU0pDQYIJAPo+6vrlUrMTMAkGA1UdEwQCMAAwDQYJ
KoZIhvcNAQELBQADggEBAEEmbFG8jQyCXM4M8tKkslq36qLG445bffynaWisw+2t
IyqJj6PNiQUZkPXESet7NI8d43fix/PU+pidFWkj7ITinTvH6jIt030X+0aV1x9i
VXyCKexrAlmOJnnXZcI/rYtpSSJztLNlskbe3RxcAfwtbYH9tb9NPPtevh1zsY9O
QAaD7k4qTO+rmDxxXC3nRUl0DjtSMgWFHSot3mVnQ9w4uIQvYZYl5ZU+k3JU5C4X
+7ZRdpZga0mQuS1tck54DcBYAOO8IR+J31No5aWi0AwO7+udXZHfgSLyIswEt3d8
rV/73Km5pniHjVVEQq82Smyn34opP07ua0H6bGRue+Q=
-----END CERTIFICATE-----
