Certificate:
    Data:
        Version: 3 (0x2)
        Serial Number: 4105 (0x1009)
    Signature Algorithm: sha256WithRSAEncryption
        Issuer: O=SJ, CN=SJCA
        Validity
            Not Before: Sep 28 08:34:18 2016 GMT
            Not After : Sep 28 08:34:18 2017 GMT
        Subject: O=SJ/dnQualifier=411340b9-f0ce-428f-9d86-3ae149a10d3a, CN=SJ++++Sthlm_Camera_Sensehat
        Subject Public Key Info:
            Public Key Algorithm: id-ecPublicKey
                Public-Key: (256 bit)
                pub: 
                    04:ee:68:fb:f1:dd:9d:24:6e:d5:25:eb:93:c1:d9:
                    ce:1f:7f:11:d9:2e:18:35:a0:7c:3d:d4:12:d9:54:
                    79:3b:bf:9f:fb:25:c0:d4:f1:13:ef:19:64:67:00:
                    16:05:24:4d:20:a5:27:0f:81:24:39:75:6f:10:9b:
                    59:d4:55:96:a7
                ASN1 OID: prime256v1
        X509v3 extensions:
            X509v3 Subject Key Identifier: 
                92:C6:14:75:1A:82:6B:A0:9D:DB:16:CC:F7:AA:67:45:55:07:B6:07
            X509v3 Authority Key Identifier: 
                DirName:/O=SJ/CN=SJCA
                serial:C1:AE:1A:28:A7:67:0B:07

            X509v3 Basic Constraints: 
                CA:FALSE
    Signature Algorithm: sha256WithRSAEncryption
         75:b6:a7:49:c9:21:86:9f:89:af:9f:98:a1:18:44:db:dd:5f:
         17:ca:43:2c:cb:4a:61:02:05:c2:5c:a8:9d:0b:e5:db:d6:ff:
         42:ef:5d:64:91:51:7d:9b:cc:2f:19:01:30:e5:11:0e:8d:67:
         97:f4:29:31:04:19:03:8a:00:6e:a1:2b:ea:1e:73:b5:49:1c:
         48:01:fe:f1:06:51:07:7e:ec:29:8e:44:dc:39:1a:39:08:98:
         95:d5:09:e2:80:f0:81:db:fc:a0:ee:3b:85:ca:45:4f:16:f1:
         4a:ee:5a:ad:f4:03:f7:76:91:cc:1d:f9:96:50:f6:d8:73:ba:
         33:59:02:89:75:a5:c4:f3:73:8c:b9:87:61:8e:2f:80:e1:bc:
         cc:72:ba:77:8f:c3:3b:10:64:ec:c2:ac:f4:ba:a1:35:1a:da:
         c2:6e:41:4c:08:b8:31:0a:13:d8:91:c3:27:ea:11:1b:1c:79:
         1d:22:fb:0b:a6:1e:e6:ca:ff:86:e6:f8:c1:e7:da:35:1f:d7:
         bf:f2:25:f3:29:35:70:3f:09:1b:52:43:31:cb:36:5f:65:a1:
         3a:e8:b7:ee:b8:58:ed:0c:19:ff:1f:96:a4:0a:d4:f2:de:53:
         5a:52:08:7a:21:13:61:0c:22:f1:13:52:6a:ad:96:1f:16:c3:
         c9:f7:32:df
-----BEGIN CERTIFICATE-----
MIICkzCCAXugAwIBAgICEAkwDQYJKoZIhvcNAQELBQAwHDELMAkGA1UEChMCU0ox
DTALBgNVBAMTBFNKQ0EwHhcNMTYwOTI4MDgzNDE4WhcNMTcwOTI4MDgzNDE4WjBi
MQswCQYDVQQKDAJTSjEtMCsGA1UELhMkNDExMzQwYjktZjBjZS00MjhmLTlkODYt
M2FlMTQ5YTEwZDNhMSQwIgYDVQQDDBtTSisrKytTdGhsbV9DYW1lcmFfU2Vuc2Vo
YXQwWTATBgcqhkjOPQIBBggqhkjOPQMBBwNCAATuaPvx3Z0kbtUl65PB2c4ffxHZ
Lhg1oHw91BLZVHk7v5/7JcDU8RPvGWRnABYFJE0gpScPgSQ5dW8Qm1nUVZano2Qw
YjAdBgNVHQ4EFgQUksYUdRqCa6Cd2xbM96pnRVUHtgcwNgYDVR0jBC8wLaEgpB4w
HDELMAkGA1UEChMCU0oxDTALBgNVBAMTBFNKQ0GCCQDBrhoop2cLBzAJBgNVHRME
AjAAMA0GCSqGSIb3DQEBCwUAA4IBAQB1tqdJySGGn4mvn5ihGETb3V8XykMsy0ph
AgXCXKidC+Xb1v9C711kkVF9m8wvGQEw5REOjWeX9CkxBBkDigBuoSvqHnO1SRxI
Af7xBlEHfuwpjkTcORo5CJiV1QnigPCB2/yg7juFykVPFvFK7lqt9AP3dpHMHfmW
UPbYc7ozWQKJdaXE83OMuYdhji+A4bzMcrp3j8M7EGTswqz0uqE1GtrCbkFMCLgx
ChPYkcMn6hEbHHkdIvsLph7myv+G5vjB59o1H9e/8iXzKTVwPwkbUkMxyzZfZaE6
6LfuuFjtDBn/H5akCtTy3lNaUgh6IRNhDCLxE1JqrZYfFsPJ9zLf
-----END CERTIFICATE-----
