Certificate:
    Data:
        Version: 3 (0x2)
        Serial Number: 4109 (0x100d)
    Signature Algorithm: sha256WithRSAEncryption
        Issuer: O=SJ, CN=SJCA
        Validity
            Not Before: Sep 28 08:34:18 2016 GMT
            Not After : Sep 28 08:34:18 2017 GMT
        Subject: O=SJ/dnQualifier=1a3e70d6-c4ce-477e-83b2-ffd80a4c62ce, CN=SJ++++Sthlm_InfoBoard
        Subject Public Key Info:
            Public Key Algorithm: id-ecPublicKey
                Public-Key: (256 bit)
                pub: 
                    04:d7:a9:d1:08:fb:45:7a:bc:d6:ef:1a:5b:78:8d:
                    fe:1b:7e:0a:cb:89:dd:58:16:fc:15:a5:63:43:e9:
                    40:14:b0:fb:ca:3f:4c:55:5c:b0:19:cb:a7:b3:71:
                    2f:34:1c:29:0b:14:06:83:fd:7a:88:2b:85:f9:ac:
                    3c:70:1b:06:c0
                ASN1 OID: prime256v1
        X509v3 extensions:
            X509v3 Subject Key Identifier: 
                05:D6:F2:DB:8C:47:0A:C1:4B:D4:16:89:9D:6A:7E:D0:6A:06:41:2A
            X509v3 Authority Key Identifier: 
                DirName:/O=SJ/CN=SJCA
                serial:C1:AE:1A:28:A7:67:0B:07

            X509v3 Basic Constraints: 
                CA:FALSE
    Signature Algorithm: sha256WithRSAEncryption
         0e:ca:e4:91:bb:78:49:42:9a:46:81:84:e4:a9:69:9b:15:0c:
         a2:43:26:d5:0b:34:81:6e:94:fd:85:95:15:25:89:3e:4d:b9:
         b6:ab:1c:df:b8:b0:8f:a3:8d:32:93:2f:f4:18:c8:71:4f:a1:
         69:d9:25:af:99:5d:75:e1:52:9f:27:f9:65:6f:18:67:e4:de:
         97:41:9e:2c:74:b0:bc:15:e4:f9:ab:8b:87:7b:4c:f3:9f:f5:
         fb:5e:ff:20:8a:2a:26:2e:db:d9:51:b6:42:01:49:2a:25:96:
         3d:9d:ca:6e:94:d1:54:04:15:7b:ff:6f:3d:e6:f9:9a:d3:ef:
         59:22:a0:2a:c7:6b:c2:21:62:e8:d9:4b:a3:8d:cd:5a:1f:aa:
         1d:ac:77:e3:2c:f3:e5:cb:56:97:d0:a6:03:3d:18:a2:fa:5c:
         6b:72:6a:3a:40:cc:2d:97:11:3b:f5:fe:3f:c3:85:51:a7:f8:
         2f:23:5f:b2:e6:84:4f:02:0f:83:ef:cc:fb:0a:ac:38:ac:e9:
         40:6f:06:dc:93:27:b9:e7:96:16:5b:b2:ba:8b:e7:6c:53:b9:
         16:67:30:54:26:37:fc:b6:2d:12:9e:8f:7f:4f:fb:bd:70:38:
         14:24:d3:94:dc:7d:b0:70:21:f8:df:82:30:ca:29:4f:fe:9c:
         0c:5d:e2:d3
-----BEGIN CERTIFICATE-----
MIICjTCCAXWgAwIBAgICEA0wDQYJKoZIhvcNAQELBQAwHDELMAkGA1UEChMCU0ox
DTALBgNVBAMTBFNKQ0EwHhcNMTYwOTI4MDgzNDE4WhcNMTcwOTI4MDgzNDE4WjBc
MQswCQYDVQQKDAJTSjEtMCsGA1UELhMkMWEzZTcwZDYtYzRjZS00NzdlLTgzYjIt
ZmZkODBhNGM2MmNlMR4wHAYDVQQDDBVTSisrKytTdGhsbV9JbmZvQm9hcmQwWTAT
BgcqhkjOPQIBBggqhkjOPQMBBwNCAATXqdEI+0V6vNbvGlt4jf4bfgrLid1YFvwV
pWND6UAUsPvKP0xVXLAZy6ezcS80HCkLFAaD/XqIK4X5rDxwGwbAo2QwYjAdBgNV
HQ4EFgQUBdby24xHCsFL1BaJnWp+0GoGQSowNgYDVR0jBC8wLaEgpB4wHDELMAkG
A1UEChMCU0oxDTALBgNVBAMTBFNKQ0GCCQDBrhoop2cLBzAJBgNVHRMEAjAAMA0G
CSqGSIb3DQEBCwUAA4IBAQAOyuSRu3hJQppGgYTkqWmbFQyiQybVCzSBbpT9hZUV
JYk+Tbm2qxzfuLCPo40yky/0GMhxT6Fp2SWvmV114VKfJ/llbxhn5N6XQZ4sdLC8
FeT5q4uHe0zzn/X7Xv8giiomLtvZUbZCAUkqJZY9ncpulNFUBBV7/2895vma0+9Z
IqAqx2vCIWLo2Uujjc1aH6odrHfjLPPly1aX0KYDPRii+lxrcmo6QMwtlxE79f4/
w4VRp/gvI1+y5oRPAg+D78z7Cqw4rOlAbwbckye555YWW7K6i+dsU7kWZzBUJjf8
ti0Sno9/T/u9cDgUJNOU3H2wcCH434IwyilP/pwMXeLT
-----END CERTIFICATE-----
