Certificate:
    Data:
        Version: 3 (0x2)
        Serial Number: 4103 (0x1007)
    Signature Algorithm: sha256WithRSAEncryption
        Issuer: O=sj.se, CN=sj.seCA
        Validity
            Not Before: Sep 20 10:17:24 2016 GMT
            Not After : Sep 20 10:17:24 2017 GMT
        Subject: O=sj.se/dnQualifier=f7172f05-3d9d-4b74-83ce-7dad494e2768, CN=se.sj++++Lund_InfoBoard
        Subject Public Key Info:
            Public Key Algorithm: id-ecPublicKey
                Public-Key: (256 bit)
                pub: 
                    04:7d:59:ce:25:ff:e1:b5:ef:4d:4b:22:cf:eb:b2:
                    74:df:3f:d9:7a:6e:e0:03:f7:73:b2:27:7f:a0:55:
                    d8:fe:43:3c:56:62:82:0d:d9:c7:fd:be:bf:a0:c3:
                    73:78:e4:29:9d:9e:47:01:15:97:c4:cd:1c:a0:7f:
                    eb:91:8f:cf:2b
                ASN1 OID: prime256v1
        X509v3 extensions:
            X509v3 Subject Key Identifier: 
                8B:F6:CA:FB:48:C7:8D:F5:E0:E5:42:43:29:FD:6E:6E:6A:C6:50:53
            X509v3 Authority Key Identifier: 
                DirName:/O=sj.se/CN=sj.seCA
                serial:85:CE:CE:7B:48:01:1C:92

            X509v3 Basic Constraints: 
                CA:FALSE
    Signature Algorithm: sha256WithRSAEncryption
         39:f5:91:c7:a1:2d:51:16:55:b1:d1:8a:74:42:9c:15:f9:f8:
         7e:3f:9b:88:e6:33:c3:28:c7:75:ab:b2:ea:b6:82:96:07:31:
         e6:2d:0d:55:3d:8a:78:dd:f7:e3:f9:8d:2f:29:2e:0e:66:11:
         ee:16:a9:c8:ea:d8:a3:b4:21:aa:9c:7e:37:a6:ac:80:7f:35:
         62:2b:c5:67:39:e4:ce:15:e1:b5:df:83:59:66:70:87:6d:97:
         1b:0c:09:e9:59:3b:91:b1:c8:9f:91:34:e0:e6:88:bd:cb:47:
         e6:f9:0c:34:07:33:bd:b4:b9:87:dd:f0:14:94:ee:35:99:db:
         de:30:07:80:c6:be:99:fc:6d:3b:84:7d:b5:ce:ee:c8:2e:e2:
         f4:18:cc:3e:a0:42:02:b2:58:be:df:7d:ae:a6:f3:13:d6:63:
         ce:91:a9:cd:9f:92:5c:c9:cf:07:3e:b8:41:5a:16:3a:ce:12:
         8c:28:16:cf:2f:7e:44:1b:6e:5b:67:b1:4e:2d:96:be:83:70:
         8f:76:fc:02:49:8e:d3:63:86:08:13:56:91:fb:5e:eb:e8:07:
         aa:ec:94:8e:bf:21:a7:c6:7a:ed:75:4f:ff:32:44:f0:8d:76:
         0f:2a:7e:ce:18:69:5f:75:c2:5a:3e:00:00:7d:78:21:c7:f8:
         c4:18:2e:1f
-----BEGIN CERTIFICATE-----
MIICnjCCAYagAwIBAgICEAcwDQYJKoZIhvcNAQELBQAwIjEOMAwGA1UEChMFc2ou
c2UxEDAOBgNVBAMTB3NqLnNlQ0EwHhcNMTYwOTIwMTAxNzI0WhcNMTcwOTIwMTAx
NzI0WjBhMQ4wDAYDVQQKDAVzai5zZTEtMCsGA1UELhMkZjcxNzJmMDUtM2Q5ZC00
Yjc0LTgzY2UtN2RhZDQ5NGUyNzY4MSAwHgYDVQQDDBdzZS5zaisrKytMdW5kX0lu
Zm9Cb2FyZDBZMBMGByqGSM49AgEGCCqGSM49AwEHA0IABH1ZziX/4bXvTUsiz+uy
dN8/2Xpu4AP3c7Inf6BV2P5DPFZigg3Zx/2+v6DDc3jkKZ2eRwEVl8TNHKB/65GP
zyujajBoMB0GA1UdDgQWBBSL9sr7SMeN9eDlQkMp/W5uasZQUzA8BgNVHSMENTAz
oSakJDAiMQ4wDAYDVQQKEwVzai5zZTEQMA4GA1UEAxMHc2ouc2VDQYIJAIXOzntI
ARySMAkGA1UdEwQCMAAwDQYJKoZIhvcNAQELBQADggEBADn1kcehLVEWVbHRinRC
nBX5+H4/m4jmM8Mox3Wrsuq2gpYHMeYtDVU9injd9+P5jS8pLg5mEe4Wqcjq2KO0
IaqcfjemrIB/NWIrxWc55M4V4bXfg1lmcIdtlxsMCelZO5GxyJ+RNODmiL3LR+b5
DDQHM720uYfd8BSU7jWZ294wB4DGvpn8bTuEfbXO7sgu4vQYzD6gQgKyWL7ffa6m
8xPWY86Rqc2fklzJzwc+uEFaFjrOEowoFs8vfkQbbltnsU4tlr6DcI92/AJJjtNj
hggTVpH7XuvoB6rslI6/IafGeu11T/8yRPCNdg8qfs4YaV91wlo+AAB9eCHH+MQY
Lh8=
-----END CERTIFICATE-----
